
Image.out:     file format elf32-littlearm


Disassembly of section .text:

00000000 <g_pfnVectors>:

const piniod_t __input_pins [] = INPUT_PIN_LIST;

void pin_sensor_init () { __pinsen_setedge_irq; }

void pin_sensor_read (word st, const byte *junk, address val) {
       0:	20005000 	andcs	r5, r0, r0

	const piniod_t *p;
	word i;
	byte v;

	if (val == NULL) {
       4:	000013fd 	strdeq	r1, [r0], -sp
		// Called to issue a wait request
		if (st == WNONE)
       8:	000013f7 	strdeq	r1, [r0], -r7
       c:	000013f9 	strdeq	r1, [r0], -r9
			// Make sure this is not WNONE
			return;
		cli;
		__pinsen_clear_and_enable;
      10:	000013fb 	strdeq	r1, [r0], -fp
      14:	000013fb 	strdeq	r1, [r0], -fp
		when (&__input_pins, st);
      18:	000013fb 	strdeq	r1, [r0], -fp
	...
	}

	*val = 0;
	for (i = 0, p = __input_pins;
	    	    i < sizeof (__input_pins) / sizeof (piniod_t); i++, p++)
		*val |= __port_in_value (p) << i;
      2c:	000013fb 	strdeq	r1, [r0], -fp
      30:	000013fb 	strdeq	r1, [r0], -fp
    ASSERT( dioNumberLegal( dioNumber ));

    //
    // Return the input value from the specified DIO.
    //
    return (( HWREG( GPIO_BASE + GPIO_O_DIN31_0 ) >> dioNumber ) & 1 );
      34:	00000000 	andeq	r0, r0, r0
      38:	000013fb 	strdeq	r1, [r0], -fp
      3c:	000013fb 	strdeq	r1, [r0], -fp
      40:	00000839 	andeq	r0, r0, r9, lsr r8
      44:	000013fb 	strdeq	r1, [r0], -fp
      48:	000013fb 	strdeq	r1, [r0], -fp
}
      4c:	000013fb 	strdeq	r1, [r0], -fp
      50:	000003f9 	strdeq	r0, [r0], -r9
      54:	000006f9 	strdeq	r0, [r0], -r9
	if (!button_still_pressed (__button_list [pbutton]))
		goto Done;

	if (BUTTON_REPEAT (__button_list [pbutton])) {
		// Wait for repeat
		delay (BUTTON_REPEAT_DELAY, BU_LOOP);
      58:	000013fb 	strdeq	r1, [r0], -fp
	    pbutton++) {
      5c:	000013fb 	strdeq	r1, [r0], -fp
      60:	000013fb 	strdeq	r1, [r0], -fp
	if (!button_still_pressed (__button_list [pbutton]))
      64:	000013fb 	strdeq	r1, [r0], -fp
      68:	000013fb 	strdeq	r1, [r0], -fp
      6c:	000013fb 	strdeq	r1, [r0], -fp
      70:	000013fb 	strdeq	r1, [r0], -fp
      74:	000013fb 	strdeq	r1, [r0], -fp
	if (BUTTON_REPEAT (__button_list [pbutton])) {
      78:	000013fb 	strdeq	r1, [r0], -fp
      7c:	000013fb 	strdeq	r1, [r0], -fp
		delay (BUTTON_REPEAT_DELAY, BU_LOOP);
      80:	000013fb 	strdeq	r1, [r0], -fp
      84:	000013fb 	strdeq	r1, [r0], -fp
	} else
		goto Debounce;

  entry (BU_LOOP)

	if (!button_still_pressed (__button_list [pbutton]))
      88:	000013fb 	strdeq	r1, [r0], -fp
      8c:	000013fb 	strdeq	r1, [r0], -fp
      90:	000013fb 	strdeq	r1, [r0], -fp
      94:	000013fb 	strdeq	r1, [r0], -fp
      98:	000013fb 	strdeq	r1, [r0], -fp
		goto Done;

	if (baction == NULL)
      9c:	000013fb 	strdeq	r1, [r0], -fp
      a0:	000013fb 	strdeq	r1, [r0], -fp
		goto Term;

	(*baction) (pbutton);
      a4:	000013fb 	strdeq	r1, [r0], -fp

	delay (BUTTON_REPEAT_INTERVAL, BU_LOOP);

endthread
      a8:	000013fb 	strdeq	r1, [r0], -fp
	delay (BUTTON_REPEAT_INTERVAL, BU_LOOP);
      ac:	000013fb 	strdeq	r1, [r0], -fp
      b0:	000013fb 	strdeq	r1, [r0], -fp
endthread
      b4:	000013fb 	strdeq	r1, [r0], -fp
      b8:	000013fb 	strdeq	r1, [r0], -fp
      bc:	000013fb 	strdeq	r1, [r0], -fp
      c0:	000013fb 	strdeq	r1, [r0], -fp
      c4:	000013fb 	strdeq	r1, [r0], -fp

000000c8 <initCycles>:
      c8:	2352      	movs	r3, #82	; 0x52
      ca:	4a0d      	ldr	r2, [pc, #52]	; (100 <_Min_Stack_Size>)
Boolean displayCycle = NO;

fsm blinker {
    state Check_PERIOD:
        if(On)
            leds(cycles[cyclesIndex].led, 1);
      cc:	b530      	push	{r4, r5, lr}
      ce:	7113      	strb	r3, [r2, #4]
      d0:	2301      	movs	r3, #1
      d2:	4c0c      	ldr	r4, [pc, #48]	; (104 <_Min_Stack_Size+0x4>)
      d4:	2500      	movs	r5, #0
            if(displayCycle) {
                ser_outf(Check_PERIOD, "%c ", cycles[cyclesIndex].letter);
            }
        else
            leds(cycles[cyclesIndex].led, 0);
      d6:	6023      	str	r3, [r4, #0]
      d8:	2347      	movs	r3, #71	; 0x47
      da:	7123      	strb	r3, [r4, #4]
      dc:	4b0a      	ldr	r3, [pc, #40]	; (108 <_Min_Stack_Size+0x8>)
    ASSERT( dioNumberLegal( dioNumber ));

    //
    // Clear the specified DIO.
    //
    HWREG( GPIO_BASE + GPIO_O_DOUTCLR31_0 ) = ( 1 << dioNumber );
      de:	6015      	str	r5, [r2, #0]
      e0:	80d5      	strh	r5, [r2, #6]
      e2:	8115      	strh	r5, [r2, #8]
      e4:	ca07      	ldmia	r2, {r0, r1, r2}
      e6:	80e5      	strh	r5, [r4, #6]
      e8:	e883 0007 	stmia.w	r3, {r0, r1, r2}
      ec:	8125      	strh	r5, [r4, #8]
      ee:	330c      	adds	r3, #12
      f0:	e894 0007 	ldmia.w	r4, {r0, r1, r2}
      f4:	e883 0007 	stmia.w	r3, {r0, r1, r2}
      f8:	4b04      	ldr	r3, [pc, #16]	; (10c <_Min_Stack_Size+0xc>)
      fa:	601d      	str	r5, [r3, #0]
      fc:	bd30      	pop	{r4, r5, pc}
      fe:	bf00      	nop
     100:	20000060 	andcs	r0, r0, r0, rrx
     104:	20000054 	andcs	r0, r0, r4, asr r0
        delay(cycles[cyclesIndex].onTime * MS,OFF_PERIOD);
        when(&On, Check_PERIOD);
        release;
    state OFF_PERIOD:
        leds(cycles[cyclesIndex].led, 0);
     108:	2000006c 	andcs	r0, r0, ip, rrx
     10c:	20000084 	andcs	r0, r0, r4, lsl #1

00000110 <processSettingsInput>:
     110:	2300      	movs	r3, #0
     112:	b5f7      	push	{r0, r1, r2, r4, r5, r6, r7, lr}
     114:	2101      	movs	r1, #1
     116:	461d      	mov	r5, r3
        cyclesIndex = (cyclesIndex + 1) % 2;
        
        delay(offTime * MS,Check_PERIOD);
        when(&On, Check_PERIOD);
        release;
}
     118:	260a      	movs	r6, #10
     11a:	1e44      	subs	r4, r0, #1
     11c:	3013      	adds	r0, #19
     11e:	f814 2f01 	ldrb.w	r2, [r4, #1]!
     122:	2a20      	cmp	r2, #32
     124:	d118      	bne.n	158 <processSettingsInput+0x48>
     126:	aa02      	add	r2, sp, #8
     128:	eb02 0245 	add.w	r2, r2, r5, lsl #1
     12c:	f822 3c08 	strh.w	r3, [r2, #-8]
     130:	2101      	movs	r1, #1
     132:	2300      	movs	r3, #0
     134:	3501      	adds	r5, #1
     136:	4284      	cmp	r4, r0
     138:	d1f1      	bne.n	11e <processSettingsInput+0xe>
     13a:	4b0c      	ldr	r3, [pc, #48]	; (16c <processSettingsInput+0x5c>)
     13c:	f8bd 2000 	ldrh.w	r2, [sp]
            number += settingsInput[i] - 48;
            numberMultiplier = numberMultiplier * 10;
        }
    }

    cycles[0].onTime = numbers[0];
     140:	80da      	strh	r2, [r3, #6]
    cycles[0].offTime = numbers[1];
     142:	f8bd 2002 	ldrh.w	r2, [sp, #2]
     146:	811a      	strh	r2, [r3, #8]

    cycles[1].onTime = numbers[2];
     148:	f8bd 2004 	ldrh.w	r2, [sp, #4]
     14c:	825a      	strh	r2, [r3, #18]
    cycles[1].offTime = numbers[3];
     14e:	f8bd 2006 	ldrh.w	r2, [sp, #6]
     152:	829a      	strh	r2, [r3, #20]
}
     154:	b003      	add	sp, #12
     156:	bdf0      	pop	{r4, r5, r6, r7, pc}
        } else if (settingsInput[i] >= '0' && settingsInput[i] <= '9') {
     158:	3a30      	subs	r2, #48	; 0x30
     15a:	b2d7      	uxtb	r7, r2
     15c:	2f09      	cmp	r7, #9
            number += settingsInput[i] - 48;
     15e:	bf9e      	ittt	ls
     160:	fb01 2303 	mlals	r3, r1, r3, r2
            numberMultiplier = numberMultiplier * 10;
     164:	4371      	mulls	r1, r6
            number += settingsInput[i] - 48;
     166:	b29b      	uxthls	r3, r3
            numberMultiplier = numberMultiplier * 10;
     168:	e7e5      	b.n	136 <processSettingsInput+0x26>
     16a:	bf00      	nop
     16c:	2000006c 	andcs	r0, r0, ip, rrx

00000170 <root>:

fsm root {
     170:	b500      	push	{lr}
     172:	b091      	sub	sp, #68	; 0x44
     174:	2809      	cmp	r0, #9
     176:	d878      	bhi.n	26a <root+0xfa>
     178:	e8df f000 	tbb	[pc, r0]
     17c:	15100b05 	ldrne	r0, [r0, #-2821]	; 0xfffff4fb
     180:	43352a26 	teqmi	r5, #155648	; 0x26000
     184:	f7ff524a 			; <UNDEFINED> instruction: 0xf7ff524a

    char username[NAME_LENGTH];
        
    state Initial:
        initCycles();
     188:	ff9f 2000 	vaddl.u16	q1, d15, d0

        ser_outf(Initial, "Enter your name: ");
     18c:	4938      	ldr	r1, [pc, #224]	; (270 <root+0x100>)
     18e:	f001 fa45 	bl	161c <ser_outf>

    state Get_Name:
        ser_in(Get_Name, username, NAME_LENGTH);
     192:	2214      	movs	r2, #20
     194:	2001      	movs	r0, #1
     196:	4937      	ldr	r1, [pc, #220]	; (274 <root+0x104>)
     198:	f001 fa04 	bl	15a4 <ser_in>
        //runfsm blinker;

    state Show_Menu:
        ser_outf(Show_Menu, "Welcome %s\n\r"
     19c:	2002      	movs	r0, #2
     19e:	4a35      	ldr	r2, [pc, #212]	; (274 <root+0x104>)
     1a0:	4935      	ldr	r1, [pc, #212]	; (278 <root+0x108>)
     1a2:	f001 fa3b 	bl	161c <ser_outf>
"Choice: ", username);

    state Get_Choice:
        char choice;
        
        ser_inf(Get_Choice, "%c", &choice);
     1a6:	2003      	movs	r0, #3
     1a8:	4934      	ldr	r1, [pc, #208]	; (27c <root+0x10c>)
     1aa:	aa03      	add	r2, sp, #12
     1ac:	f001 fa60 	bl	1670 <ser_inf>
        
        if (choice == 'A' || choice == 'a'){
     1b0:	f89d 300c 	ldrb.w	r3, [sp, #12]
     1b4:	f003 03df 	and.w	r3, r3, #223	; 0xdf
     1b8:	2b41      	cmp	r3, #65	; 0x41
     1ba:	d14a      	bne.n	252 <root+0xe2>
            proceed Adjust_Intervals;
     1bc:	2004      	movs	r0, #4
        } else if (choice == 'S' || choice == 's') {
            proceed Stop;
        } else if (choice == 'V' || choice == 'v') {
            proceed View_Settings;
        } else if (choice == 'M' || choice == 'm') {
            proceed Monitor;
     1be:	f000 fe9d 	bl	efc <proceed>
        }

        proceed Show_Menu;
     1c2:	2002      	movs	r0, #2
     1c4:	f000 fe9a 	bl	efc <proceed>

    state Adjust_Intervals:
        ser_outf(Initial, "Enter the intervals (Red ON, OFF, Green ON, OFF): ");
     1c8:	2000      	movs	r0, #0
     1ca:	492d      	ldr	r1, [pc, #180]	; (280 <root+0x110>)
     1cc:	f001 fa26 	bl	161c <ser_outf>

    state Set_Intervals:
        char settings[SETTINGS_LENGTH];

        ser_in(Set_Intervals, settings, SETTINGS_LENGTH);
     1d0:	2232      	movs	r2, #50	; 0x32
     1d2:	a903      	add	r1, sp, #12
     1d4:	2005      	movs	r0, #5
     1d6:	f001 f9e5 	bl	15a4 <ser_in>

        processSettingsInput(settings);
     1da:	a803      	add	r0, sp, #12
     1dc:	f7ff ff98 	bl	110 <processSettingsInput>

        proceed Show_Menu;
     1e0:	2002      	movs	r0, #2
     1e2:	f000 fe8b 	bl	efc <proceed>

    state View_Settings:
        ser_outf(View_Settings, "(Red ON, OFF, Green ON, OFF) intervals: (%d, %d, %d, %d)\n\r",
            cycles[0].onTime,
            cycles[0].offTime,
     1e6:	4a27      	ldr	r2, [pc, #156]	; (284 <root+0x114>)
        ser_outf(View_Settings, "(Red ON, OFF, Green ON, OFF) intervals: (%d, %d, %d, %d)\n\r",
     1e8:	2006      	movs	r0, #6
     1ea:	8a93      	ldrh	r3, [r2, #20]
     1ec:	4926      	ldr	r1, [pc, #152]	; (288 <root+0x118>)
     1ee:	9301      	str	r3, [sp, #4]
     1f0:	8a53      	ldrh	r3, [r2, #18]
     1f2:	9300      	str	r3, [sp, #0]
     1f4:	8913      	ldrh	r3, [r2, #8]
     1f6:	88d2      	ldrh	r2, [r2, #6]
     1f8:	f001 fa10 	bl	161c <ser_outf>
            cycles[1].onTime,
            cycles[1].offTime
        );

        proceed Show_Menu;
     1fc:	2002      	movs	r0, #2
     1fe:	f000 fe7d 	bl	efc <proceed>

    state Monitor:
        ser_outf(Monitor, "Monitor (press S to stop): ");
     202:	2007      	movs	r0, #7
     204:	4921      	ldr	r1, [pc, #132]	; (28c <root+0x11c>)
     206:	f001 fa09 	bl	161c <ser_outf>
        displayCycle = YES;
     20a:	2201      	movs	r2, #1
     20c:	4b20      	ldr	r3, [pc, #128]	; (290 <root+0x120>)
     20e:	701a      	strb	r2, [r3, #0]

    state Await_Stop:
        char ch;
        ser_inf(Await_Stop, "%c", ch);
     210:	2200      	movs	r2, #0
     212:	2008      	movs	r0, #8
     214:	4919      	ldr	r1, [pc, #100]	; (27c <root+0x10c>)
     216:	f001 fa2b 	bl	1670 <ser_inf>
        if(ch == 'S' || ch == 's'){
            displayCycle = NO;
            proceed Show_Menu;
        }
        
        proceed Monitor;
     21a:	2007      	movs	r0, #7
     21c:	f000 fe6e 	bl	efc <proceed>
     220:	2380      	movs	r3, #128	; 0x80
     222:	481c      	ldr	r0, [pc, #112]	; (294 <root+0x124>)
     224:	6003      	str	r3, [r0, #0]

    state Stop:
        leds(1, 0);
     226:	4b1c      	ldr	r3, [pc, #112]	; (298 <root+0x128>)
     228:	781a      	ldrb	r2, [r3, #0]
     22a:	7819      	ldrb	r1, [r3, #0]
     22c:	0912      	lsrs	r2, r2, #4
     22e:	f002 020d 	and.w	r2, r2, #13
     232:	f362 1107 	bfi	r1, r2, #4, #4
     236:	2240      	movs	r2, #64	; 0x40
     238:	7019      	strb	r1, [r3, #0]
     23a:	6002      	str	r2, [r0, #0]
        leds(0, 0);
     23c:	781a      	ldrb	r2, [r3, #0]
     23e:	7819      	ldrb	r1, [r3, #0]
     240:	0912      	lsrs	r2, r2, #4
     242:	f002 020e 	and.w	r2, r2, #14
     246:	f362 1107 	bfi	r1, r2, #4, #4
     24a:	7019      	strb	r1, [r3, #0]
     24c:	b011      	add	sp, #68	; 0x44
     24e:	f85d fb04 	ldr.w	pc, [sp], #4
        } else if (choice == 'S' || choice == 's') {
     252:	2b53      	cmp	r3, #83	; 0x53
     254:	d101      	bne.n	25a <root+0xea>
            proceed Stop;
     256:	2009      	movs	r0, #9
     258:	e7b1      	b.n	1be <root+0x4e>
        } else if (choice == 'V' || choice == 'v') {
     25a:	2b56      	cmp	r3, #86	; 0x56
     25c:	d101      	bne.n	262 <root+0xf2>
            proceed View_Settings;
     25e:	2006      	movs	r0, #6
     260:	e7ad      	b.n	1be <root+0x4e>
        } else if (choice == 'M' || choice == 'm') {
     262:	2b4d      	cmp	r3, #77	; 0x4d
     264:	d1ad      	bne.n	1c2 <root+0x52>
            proceed Monitor;
     266:	2007      	movs	r0, #7
     268:	e7a9      	b.n	1be <root+0x4e>
     26a:	f000 fdd9 	bl	e20 <__pi_badstate>
     26e:	e7ed      	b.n	24c <root+0xdc>
     270:	00002a54 	andeq	r2, r0, r4, asr sl
     274:	20000001 	andcs	r0, r0, r1
     278:	00002a66 	andeq	r2, r0, r6, ror #20
     27c:	00002af7 	strdeq	r2, [r0], -r7
     280:	00002afa 	strdeq	r2, [r0], -sl
     284:	2000006c 	andcs	r0, r0, ip, rrx
     288:	00002b2d 	andeq	r2, r0, sp, lsr #22
     28c:	00002b68 	andeq	r2, r0, r8, ror #22
     290:	20000000 	andcs	r0, r0, r0
     294:	400220a0 	andmi	r2, r2, r0, lsr #1
     298:	2000009c 	mulcs	r0, ip, r0

0000029c <devinit_uart>:
			/* No return */
			return 0;
	}
}

static void devinit_uart (int devnum) {
     29c:	4601      	mov	r1, r0

	adddevfunc (ioreq_uart_a, devnum);
     29e:	4801      	ldr	r0, [pc, #4]	; (2a4 <devinit_uart+0x8>)
     2a0:	f000 bebc 	b.w	101c <adddevfunc>
     2a4:	000005e9 	andeq	r0, r0, r9, ror #11

000002a8 <udelay>:
void udelay (volatile word n) {
     2a8:	b082      	sub	sp, #8
     2aa:	f8ad 0006 	strh.w	r0, [sp, #6]
	while (n) {
     2ae:	f8bd 3006 	ldrh.w	r3, [sp, #6]
     2b2:	b29b      	uxth	r3, r3
     2b4:	b90b      	cbnz	r3, 2ba <udelay+0x12>
}
     2b6:	b002      	add	sp, #8
     2b8:	4770      	bx	lr
		_gdelay (__USEC_DELAY);
     2ba:	2304      	movs	r3, #4
	while (n--);
     2bc:	461a      	mov	r2, r3
     2be:	3b01      	subs	r3, #1
     2c0:	b29b      	uxth	r3, r3
     2c2:	2a00      	cmp	r2, #0
     2c4:	d1fa      	bne.n	2bc <udelay+0x14>
		n--;
     2c6:	f8bd 3006 	ldrh.w	r3, [sp, #6]
     2ca:	3b01      	subs	r3, #1
     2cc:	b29b      	uxth	r3, r3
     2ce:	f8ad 3006 	strh.w	r3, [sp, #6]
     2d2:	e7ec      	b.n	2ae <udelay+0x6>

000002d4 <mdelay>:
void mdelay (volatile word n) {
     2d4:	b507      	push	{r0, r1, r2, lr}
     2d6:	f8ad 0006 	strh.w	r0, [sp, #6]
	while (n) {
     2da:	f8bd 3006 	ldrh.w	r3, [sp, #6]
     2de:	b29b      	uxth	r3, r3
     2e0:	b913      	cbnz	r3, 2e8 <mdelay+0x14>
}
     2e2:	b003      	add	sp, #12
     2e4:	f85d fb04 	ldr.w	pc, [sp], #4
		udelay (999);
     2e8:	f240 30e7 	movw	r0, #999	; 0x3e7
     2ec:	f7ff ffdc 	bl	2a8 <udelay>
		n--;
     2f0:	f8bd 3006 	ldrh.w	r3, [sp, #6]
     2f4:	3b01      	subs	r3, #1
     2f6:	b29b      	uxth	r3, r3
     2f8:	f8ad 3006 	strh.w	r3, [sp, #6]
     2fc:	e7ed      	b.n	2da <mdelay+0x6>
	...

00000300 <__pi_ondomain>:
void __pi_ondomain (lword d) {
     300:	b538      	push	{r3, r4, r5, lr}
	if (d & PRCM_DOMAIN_RFCORE) {
     302:	07c3      	lsls	r3, r0, #31
void __pi_ondomain (lword d) {
     304:	4604      	mov	r4, r0
	if (d & PRCM_DOMAIN_RFCORE) {
     306:	d505      	bpl.n	314 <__pi_ondomain+0x14>
		if (__pi_systat.effpdm > 1)
     308:	4b0a      	ldr	r3, [pc, #40]	; (334 <__pi_ondomain+0x34>)
     30a:	78da      	ldrb	r2, [r3, #3]
     30c:	2a01      	cmp	r2, #1
			__pi_systat.effpdm = 1;
     30e:	bf84      	itt	hi
     310:	2201      	movhi	r2, #1
     312:	70da      	strbhi	r2, [r3, #3]
	PRCMPowerDomainOn (d);
     314:	4d08      	ldr	r5, [pc, #32]	; (338 <__pi_ondomain+0x38>)
     316:	4620      	mov	r0, r4
     318:	682b      	ldr	r3, [r5, #0]
     31a:	695b      	ldr	r3, [r3, #20]
     31c:	4798      	blx	r3
	while (PRCMPowerDomainStatus (d) != PRCM_DOMAIN_POWER_ON);
     31e:	682b      	ldr	r3, [r5, #0]
     320:	4620      	mov	r0, r4
     322:	6b5b      	ldr	r3, [r3, #52]	; 0x34
     324:	4798      	blx	r3
     326:	2801      	cmp	r0, #1
     328:	d1f9      	bne.n	31e <__pi_ondomain+0x1e>
	__pi_systat.ondmns |= d;
     32a:	4b02      	ldr	r3, [pc, #8]	; (334 <__pi_ondomain+0x34>)
     32c:	6858      	ldr	r0, [r3, #4]
     32e:	4304      	orrs	r4, r0
     330:	605c      	str	r4, [r3, #4]
}
     332:	bd38      	pop	{r3, r4, r5, pc}
     334:	2000009c 	mulcs	r0, ip, r0
     338:	100001b8 			; <UNDEFINED> instruction: 0x100001b8

0000033c <__pi_syserror>:
void __pi_syserror (word ec, const char *m) {
     33c:	460a      	mov	r2, r1
     33e:	b580      	push	{r7, lr}
	diag ("SYSERR: %x, %s", ec, m);
     340:	4601      	mov	r1, r0
     342:	480f      	ldr	r0, [pc, #60]	; (380 <__pi_syserror+0x44>)
     344:	f000 ffb8 	bl	12b8 <diag>
  \details Disables IRQ interrupts by setting the I-bit in the CPSR.
           Can only be executed in Privileged modes.
 */
__attribute__((always_inline)) __STATIC_INLINE void __disable_irq(void)
{
  __ASM volatile ("cpsid i" : : : "memory");
     348:	b672      	cpsid	i
    HWREG( GPIO_BASE + GPIO_O_DOUTSET31_0 ) = ( 1 << dioNumber );
     34a:	2540      	movs	r5, #64	; 0x40
     34c:	462f      	mov	r7, r5
     34e:	4e0d      	ldr	r6, [pc, #52]	; (384 <__pi_syserror+0x48>)
     350:	2480      	movs	r4, #128	; 0x80
		all_leds_blink;
     352:	490d      	ldr	r1, [pc, #52]	; (388 <__pi_syserror+0x4c>)
     354:	6037      	str	r7, [r6, #0]
     356:	6034      	str	r4, [r6, #0]
     358:	780b      	ldrb	r3, [r1, #0]
     35a:	780b      	ldrb	r3, [r1, #0]
     35c:	20c8      	movs	r0, #200	; 0xc8
     35e:	f36f 1307 	bfc	r3, #4, #4
     362:	700b      	strb	r3, [r1, #0]
     364:	f7ff ffb6 	bl	2d4 <mdelay>
    HWREG( GPIO_BASE + GPIO_O_DOUTCLR31_0 ) = ( 1 << dioNumber );
     368:	4b08      	ldr	r3, [pc, #32]	; (38c <__pi_syserror+0x50>)
     36a:	20c8      	movs	r0, #200	; 0xc8
     36c:	601d      	str	r5, [r3, #0]
     36e:	601c      	str	r4, [r3, #0]
     370:	780b      	ldrb	r3, [r1, #0]
     372:	780b      	ldrb	r3, [r1, #0]
     374:	f36f 1307 	bfc	r3, #4, #4
     378:	700b      	strb	r3, [r1, #0]
     37a:	f7ff ffab 	bl	2d4 <mdelay>
	while (1) {
     37e:	e7e7      	b.n	350 <__pi_syserror+0x14>
     380:	00002b84 	andeq	r2, r0, r4, lsl #23
     384:	40022090 	mulmi	r2, r0, r0
     388:	2000009c 	mulcs	r0, ip, r0
     38c:	400220a0 	andmi	r2, r2, r0, lsr #1

00000390 <tci_run_delay_timer>:
void tci_run_delay_timer () {
     390:	b510      	push	{r4, lr}
	setdel = __pi_mintk - __pi_old;
     392:	4b0a      	ldr	r3, [pc, #40]	; (3bc <tci_run_delay_timer+0x2c>)
     394:	881c      	ldrh	r4, [r3, #0]
     396:	4b0a      	ldr	r3, [pc, #40]	; (3c0 <tci_run_delay_timer+0x30>)
     398:	8818      	ldrh	r0, [r3, #0]
     39a:	4b0a      	ldr	r3, [pc, #40]	; (3c4 <tci_run_delay_timer+0x34>)
     39c:	1b00      	subs	r0, r0, r4
     39e:	b284      	uxth	r4, r0
     3a0:	801c      	strh	r4, [r3, #0]
	return (lword)(AONRTCCurrent64BitValueGet () >> 16) + TCI_TINCR (del);
     3a2:	f001 fd8b 	bl	1ebc <NOROM_AONRTCCurrent64BitValueGet>
	sti_tim;
     3a6:	2201      	movs	r2, #1
	return (lword)(AONRTCCurrent64BitValueGet () >> 16) + TCI_TINCR (del);
     3a8:	0c00      	lsrs	r0, r0, #16
	HWREG (AON_RTC_BASE + AON_RTC_O_CH0CMP) = settav (setdel);
     3aa:	4b07      	ldr	r3, [pc, #28]	; (3c8 <tci_run_delay_timer+0x38>)
	return (lword)(AONRTCCurrent64BitValueGet () >> 16) + TCI_TINCR (del);
     3ac:	ea40 4001 	orr.w	r0, r0, r1, lsl #16
     3b0:	eb00 1084 	add.w	r0, r0, r4, lsl #6
	HWREG (AON_RTC_BASE + AON_RTC_O_CH0CMP) = settav (setdel);
     3b4:	6018      	str	r0, [r3, #0]
	sti_tim;
     3b6:	4b05      	ldr	r3, [pc, #20]	; (3cc <tci_run_delay_timer+0x3c>)
     3b8:	601a      	str	r2, [r3, #0]
}
     3ba:	bd10      	pop	{r4, pc}
     3bc:	2000009a 	mulcs	r0, sl, r0
     3c0:	20000098 	mulcs	r0, r8, r0
     3c4:	20000016 	andcs	r0, r0, r6, lsl r0
     3c8:	40092018 	andmi	r2, r9, r8, lsl r0
     3cc:	43240280 			; <UNDEFINED> instruction: 0x43240280

000003d0 <tci_run_auxiliary_timer>:
	cli_aux;
     3d0:	2300      	movs	r3, #0
void tci_run_auxiliary_timer () {
     3d2:	b510      	push	{r4, lr}
	cli_aux;
     3d4:	4c06      	ldr	r4, [pc, #24]	; (3f0 <tci_run_auxiliary_timer+0x20>)
     3d6:	6023      	str	r3, [r4, #0]
	return (lword)(AONRTCCurrent64BitValueGet () >> 16) + TCI_TINCR (del);
     3d8:	f001 fd70 	bl	1ebc <NOROM_AONRTCCurrent64BitValueGet>
     3dc:	0c00      	lsrs	r0, r0, #16
	HWREG (AON_RTC_BASE + AON_RTC_O_CH2CMP) = settav (1);
     3de:	4b05      	ldr	r3, [pc, #20]	; (3f4 <tci_run_auxiliary_timer+0x24>)
	return (lword)(AONRTCCurrent64BitValueGet () >> 16) + TCI_TINCR (del);
     3e0:	ea40 4001 	orr.w	r0, r0, r1, lsl #16
     3e4:	3040      	adds	r0, #64	; 0x40
	HWREG (AON_RTC_BASE + AON_RTC_O_CH2CMP) = settav (1);
     3e6:	6018      	str	r0, [r3, #0]
	sti_aux;
     3e8:	2301      	movs	r3, #1
     3ea:	6023      	str	r3, [r4, #0]
}
     3ec:	bd10      	pop	{r4, pc}
     3ee:	bf00      	nop
     3f0:	432402c0 			; <UNDEFINED> instruction: 0x432402c0
     3f4:	40092020 	andmi	r2, r9, r0, lsr #32

000003f8 <AONRTCIntHandler>:
void AONRTCIntHandler () {
     3f8:	b510      	push	{r4, lr}
	events = HWREG (AON_RTC_BASE + AON_RTC_O_EVFLAGS) & 
     3fa:	4b3b      	ldr	r3, [pc, #236]	; (4e8 <AONRTCIntHandler+0xf0>)
     3fc:	6818      	ldr	r0, [r3, #0]
     3fe:	f000 1201 	and.w	r2, r0, #65537	; 0x10001
	if (events & AON_RTC_EVFLAGS_CH2) {
     402:	03c4      	lsls	r4, r0, #15
	HWREG (AON_RTC_BASE + AON_RTC_O_EVFLAGS) = events;
     404:	601a      	str	r2, [r3, #0]
	if (events & AON_RTC_EVFLAGS_CH2) {
     406:	d542      	bpl.n	48e <AONRTCIntHandler+0x96>
		if (__pi_utims [0] == 0)
     408:	4b38      	ldr	r3, [pc, #224]	; (4ec <AONRTCIntHandler+0xf4>)
     40a:	6819      	ldr	r1, [r3, #0]
     40c:	2900      	cmp	r1, #0
     40e:	d053      	beq.n	4b8 <AONRTCIntHandler+0xc0>
		if (*(__pi_utims [0])) {
     410:	880a      	ldrh	r2, [r1, #0]
     412:	2a00      	cmp	r2, #0
     414:	d04e      	beq.n	4b4 <AONRTCIntHandler+0xbc>
			(*(__pi_utims [0]))--;
     416:	3a01      	subs	r2, #1
     418:	800a      	strh	r2, [r1, #0]
			aux_timer_inactive = 0;
     41a:	2200      	movs	r2, #0
		if (__pi_utims [1] == 0)
     41c:	685c      	ldr	r4, [r3, #4]
     41e:	b194      	cbz	r4, 446 <AONRTCIntHandler+0x4e>
		if (*(__pi_utims [1])) {
     420:	8821      	ldrh	r1, [r4, #0]
     422:	b111      	cbz	r1, 42a <AONRTCIntHandler+0x32>
			aux_timer_inactive = 0;
     424:	2200      	movs	r2, #0
			(*(__pi_utims [1]))--;
     426:	3901      	subs	r1, #1
     428:	8021      	strh	r1, [r4, #0]
		if (__pi_utims [2] == 0)
     42a:	689c      	ldr	r4, [r3, #8]
     42c:	b15c      	cbz	r4, 446 <AONRTCIntHandler+0x4e>
		if (*(__pi_utims [2])) {
     42e:	8821      	ldrh	r1, [r4, #0]
     430:	b111      	cbz	r1, 438 <AONRTCIntHandler+0x40>
			aux_timer_inactive = 0;
     432:	2200      	movs	r2, #0
			(*(__pi_utims [2]))--;
     434:	3901      	subs	r1, #1
     436:	8021      	strh	r1, [r4, #0]
		if (__pi_utims [3] != 0) {
     438:	68d9      	ldr	r1, [r3, #12]
     43a:	b121      	cbz	r1, 446 <AONRTCIntHandler+0x4e>
			if (*(__pi_utims [3])) {
     43c:	880b      	ldrh	r3, [r1, #0]
     43e:	b113      	cbz	r3, 446 <AONRTCIntHandler+0x4e>
				aux_timer_inactive = 0;
     440:	2200      	movs	r2, #0
				(*(__pi_utims [3]))--;
     442:	3b01      	subs	r3, #1
     444:	800b      	strh	r3, [r1, #0]
/* ==================================================================== */
/* Copyright (C) Olsonet Communications, 2002 - 2006                    */
/* All rights reserved.                                                 */
/* ==================================================================== */

	if (__pi_systat.ledsts) {
     446:	4b2a      	ldr	r3, [pc, #168]	; (4f0 <AONRTCIntHandler+0xf8>)
     448:	7819      	ldrb	r1, [r3, #0]
     44a:	0909      	lsrs	r1, r1, #4
     44c:	d047      	beq.n	4de <AONRTCIntHandler+0xe6>
		// Some leds are supposed to blink
		if (__pi_systat.ledblc++ == 0) {
     44e:	7859      	ldrb	r1, [r3, #1]
     450:	1c4a      	adds	r2, r1, #1
     452:	b2d2      	uxtb	r2, r2
     454:	705a      	strb	r2, [r3, #1]
     456:	b9d1      	cbnz	r1, 48e <AONRTCIntHandler+0x96>
			if (__pi_systat.ledblk) {
     458:	781a      	ldrb	r2, [r3, #0]
     45a:	f012 0f08 	tst.w	r2, #8
				if (__pi_systat.ledsts & 0x1)
     45e:	781a      	ldrb	r2, [r3, #0]
			if (__pi_systat.ledblk) {
     460:	d02c      	beq.n	4bc <AONRTCIntHandler+0xc4>
				if (__pi_systat.ledsts & 0x1)
     462:	06d1      	lsls	r1, r2, #27
    HWREG( GPIO_BASE + GPIO_O_DOUTSET31_0 ) = ( 1 << dioNumber );
     464:	bf42      	ittt	mi
     466:	2140      	movmi	r1, #64	; 0x40
     468:	4a22      	ldrmi	r2, [pc, #136]	; (4f4 <AONRTCIntHandler+0xfc>)
     46a:	6011      	strmi	r1, [r2, #0]
					LED0_ON;
				if (__pi_systat.ledsts & 0x2)
     46c:	781a      	ldrb	r2, [r3, #0]
     46e:	0692      	lsls	r2, r2, #26
     470:	bf42      	ittt	mi
     472:	2180      	movmi	r1, #128	; 0x80
     474:	4a1f      	ldrmi	r2, [pc, #124]	; (4f4 <AONRTCIntHandler+0xfc>)
     476:	6011      	strmi	r1, [r2, #0]
					LED1_ON;
				if (__pi_systat.ledsts & 0x4)
     478:	781a      	ldrb	r2, [r3, #0]
					LED2_ON;
				if (__pi_systat.ledsts & 0x8)
     47a:	781a      	ldrb	r2, [r3, #0]
					LED3_ON;
				__pi_systat.ledblk = 0;
     47c:	781a      	ldrb	r2, [r3, #0]
     47e:	f36f 02c3 	bfc	r2, #3, #1
					LED1_OFF;
				if (__pi_systat.ledsts & 0x4)
					LED2_OFF;
				if (__pi_systat.ledsts & 0x8)
					LED3_OFF;
				__pi_systat.ledblk = 1;
     482:	701a      	strb	r2, [r3, #0]
			}
			if (__pi_systat.fstblk)
     484:	781a      	ldrb	r2, [r3, #0]
     486:	0752      	lsls	r2, r2, #29
     488:	d501      	bpl.n	48e <AONRTCIntHandler+0x96>
				__pi_systat.ledblc = 200;
     48a:	22c8      	movs	r2, #200	; 0xc8
     48c:	705a      	strb	r2, [r3, #1]
	if (events & AON_RTC_EVFLAGS_CH0) {
     48e:	07c3      	lsls	r3, r0, #31
     490:	d50f      	bpl.n	4b2 <AONRTCIntHandler+0xba>
		cli_tim;
     492:	2100      	movs	r1, #0
     494:	4b18      	ldr	r3, [pc, #96]	; (4f8 <AONRTCIntHandler+0x100>)
		__pi_new += setdel;
     496:	4a19      	ldr	r2, [pc, #100]	; (4fc <AONRTCIntHandler+0x104>)
     498:	4819      	ldr	r0, [pc, #100]	; (500 <AONRTCIntHandler+0x108>)
		cli_tim;
     49a:	6019      	str	r1, [r3, #0]
		__pi_new += setdel;
     49c:	8803      	ldrh	r3, [r0, #0]
     49e:	8814      	ldrh	r4, [r2, #0]
		setdel = 0;
     4a0:	8011      	strh	r1, [r2, #0]
		__pi_new += setdel;
     4a2:	4423      	add	r3, r4
		RISE_N_SHINE;
     4a4:	4a12      	ldr	r2, [pc, #72]	; (4f0 <AONRTCIntHandler+0xf8>)
		__pi_new += setdel;
     4a6:	b29b      	uxth	r3, r3
     4a8:	8003      	strh	r3, [r0, #0]
		RISE_N_SHINE;
     4aa:	7813      	ldrb	r3, [r2, #0]
     4ac:	f043 0302 	orr.w	r3, r3, #2
     4b0:	7013      	strb	r3, [r2, #0]
}
     4b2:	bd10      	pop	{r4, pc}
		aux_timer_inactive = 1;
     4b4:	2201      	movs	r2, #1
     4b6:	e7b1      	b.n	41c <AONRTCIntHandler+0x24>
     4b8:	2201      	movs	r2, #1
     4ba:	e7c4      	b.n	446 <AONRTCIntHandler+0x4e>
				if (__pi_systat.ledsts & 0x1)
     4bc:	06d4      	lsls	r4, r2, #27
    HWREG( GPIO_BASE + GPIO_O_DOUTCLR31_0 ) = ( 1 << dioNumber );
     4be:	bf42      	ittt	mi
     4c0:	2140      	movmi	r1, #64	; 0x40
     4c2:	4a10      	ldrmi	r2, [pc, #64]	; (504 <AONRTCIntHandler+0x10c>)
     4c4:	6011      	strmi	r1, [r2, #0]
				if (__pi_systat.ledsts & 0x2)
     4c6:	781a      	ldrb	r2, [r3, #0]
     4c8:	0691      	lsls	r1, r2, #26
     4ca:	bf42      	ittt	mi
     4cc:	2180      	movmi	r1, #128	; 0x80
     4ce:	4a0d      	ldrmi	r2, [pc, #52]	; (504 <AONRTCIntHandler+0x10c>)
     4d0:	6011      	strmi	r1, [r2, #0]
				if (__pi_systat.ledsts & 0x4)
     4d2:	781a      	ldrb	r2, [r3, #0]
				if (__pi_systat.ledsts & 0x8)
     4d4:	781a      	ldrb	r2, [r3, #0]
				__pi_systat.ledblk = 1;
     4d6:	781a      	ldrb	r2, [r3, #0]
     4d8:	f042 0208 	orr.w	r2, r2, #8
     4dc:	e7d1      	b.n	482 <AONRTCIntHandler+0x8a>
		if (aux_timer_inactive) {
     4de:	2a00      	cmp	r2, #0
     4e0:	d0d5      	beq.n	48e <AONRTCIntHandler+0x96>
			cli_aux;
     4e2:	4b09      	ldr	r3, [pc, #36]	; (508 <AONRTCIntHandler+0x110>)
     4e4:	6019      	str	r1, [r3, #0]
     4e6:	e7d2      	b.n	48e <AONRTCIntHandler+0x96>
     4e8:	40092004 	andmi	r2, r9, r4
     4ec:	200000a8 	andcs	r0, r0, r8, lsr #1
     4f0:	2000009c 	mulcs	r0, ip, r0
     4f4:	40022090 	mulmi	r2, r0, r0
     4f8:	43240280 			; <UNDEFINED> instruction: 0x43240280
     4fc:	20000016 	andcs	r0, r0, r6, lsl r0
     500:	200000a4 	andcs	r0, r0, r4, lsr #1
     504:	400220a0 	andmi	r2, r2, r0, lsr #1
     508:	432402c0 			; <UNDEFINED> instruction: 0x432402c0

0000050c <tci_update_delay_ticks>:
word tci_update_delay_ticks (Boolean force) {
     50c:	b5f8      	push	{r3, r4, r5, r6, r7, lr}
	cli_tim;
     50e:	2600      	movs	r6, #0
     510:	4b0e      	ldr	r3, [pc, #56]	; (54c <tci_update_delay_ticks+0x40>)
	if (setdel) {
     512:	4f0f      	ldr	r7, [pc, #60]	; (550 <tci_update_delay_ticks+0x44>)
	cli_tim;
     514:	601e      	str	r6, [r3, #0]
	if (setdel) {
     516:	883d      	ldrh	r5, [r7, #0]
     518:	b19d      	cbz	r5, 542 <tci_update_delay_ticks+0x36>
		if (force) {
     51a:	b1a0      	cbz	r0, 546 <tci_update_delay_ticks+0x3a>
			__pi_new += setdel - (TCI_INCRT (HWREG (AON_RTC_BASE +
     51c:	4b0d      	ldr	r3, [pc, #52]	; (554 <tci_update_delay_ticks+0x48>)
     51e:	681c      	ldr	r4, [r3, #0]
	return (word)(AONRTCCurrent64BitValueGet () >> (32 - 10));
     520:	f001 fccc 	bl	1ebc <NOROM_AONRTCCurrent64BitValueGet>
     524:	0d80      	lsrs	r0, r0, #22
     526:	ea40 2081 	orr.w	r0, r0, r1, lsl #10
			__pi_new += setdel - (TCI_INCRT (HWREG (AON_RTC_BASE +
     52a:	f3c4 148f 	ubfx	r4, r4, #6, #16
				AON_RTC_O_CH0CMP)) - gettav ());
     52e:	b280      	uxth	r0, r0
     530:	1a24      	subs	r4, r4, r0
			__pi_new += setdel - (TCI_INCRT (HWREG (AON_RTC_BASE +
     532:	1b2c      	subs	r4, r5, r4
	return NO;
     534:	4635      	mov	r5, r6
			__pi_new += setdel - (TCI_INCRT (HWREG (AON_RTC_BASE +
     536:	4b08      	ldr	r3, [pc, #32]	; (558 <tci_update_delay_ticks+0x4c>)
			setdel = 0;
     538:	803e      	strh	r6, [r7, #0]
			__pi_new += setdel - (TCI_INCRT (HWREG (AON_RTC_BASE +
     53a:	881a      	ldrh	r2, [r3, #0]
     53c:	4414      	add	r4, r2
     53e:	b2a4      	uxth	r4, r4
     540:	801c      	strh	r4, [r3, #0]
}
     542:	4628      	mov	r0, r5
     544:	bdf8      	pop	{r3, r4, r5, r6, r7, pc}
		sti_tim;
     546:	2501      	movs	r5, #1
     548:	601d      	str	r5, [r3, #0]
		return YES;
     54a:	e7fa      	b.n	542 <tci_update_delay_ticks+0x36>
     54c:	43240280 			; <UNDEFINED> instruction: 0x43240280
     550:	20000016 	andcs	r0, r0, r6, lsl r0
     554:	40092018 	andmi	r2, r9, r8, lsl r0
     558:	200000a4 	andcs	r0, r0, r4, lsr #1

0000055c <__pi_uart_setrate>:
Boolean __pi_uart_setrate (word rate, uart_t *ua) {
     55c:	b570      	push	{r4, r5, r6, lr}
	UARTDisable (UART0_BASE);
     55e:	4e0f      	ldr	r6, [pc, #60]	; (59c <__pi_uart_setrate+0x40>)
     560:	4d0f      	ldr	r5, [pc, #60]	; (5a0 <__pi_uart_setrate+0x44>)
     562:	6833      	ldr	r3, [r6, #0]
Boolean __pi_uart_setrate (word rate, uart_t *ua) {
     564:	4604      	mov	r4, r0
	UARTDisable (UART0_BASE);
     566:	68db      	ldr	r3, [r3, #12]
     568:	4628      	mov	r0, r5
     56a:	4798      	blx	r3
	UARTConfigSetExpClk (UART0_BASE,
     56c:	2264      	movs	r2, #100	; 0x64
     56e:	6833      	ldr	r3, [r6, #0]
     570:	4628      	mov	r0, r5
     572:	4362      	muls	r2, r4
     574:	685e      	ldr	r6, [r3, #4]
     576:	490b      	ldr	r1, [pc, #44]	; (5a4 <__pi_uart_setrate+0x48>)
     578:	2360      	movs	r3, #96	; 0x60
     57a:	47b0      	blx	r6
    ASSERT(UARTBaseValid(ui32Base));

    //
    // Enable the FIFO.
    //
    HWREG(ui32Base + UART_O_LCRH) |= UART_LCRH_FEN;
     57c:	4a0a      	ldr	r2, [pc, #40]	; (5a8 <__pi_uart_setrate+0x4c>)
}
     57e:	2001      	movs	r0, #1
     580:	6813      	ldr	r3, [r2, #0]
     582:	f043 0310 	orr.w	r3, r3, #16
     586:	6013      	str	r3, [r2, #0]

    //
    // Enable RX, TX, and the UART.
    //
    HWREG(ui32Base + UART_O_CTL) |= (UART_CTL_UARTEN | UART_CTL_TXE |
     588:	6853      	ldr	r3, [r2, #4]
     58a:	f443 7340 	orr.w	r3, r3, #768	; 0x300
     58e:	f043 0301 	orr.w	r3, r3, #1
     592:	6053      	str	r3, [r2, #4]
	urates [0] = rate;
     594:	4b05      	ldr	r3, [pc, #20]	; (5ac <__pi_uart_setrate+0x50>)
     596:	801c      	strh	r4, [r3, #0]
}
     598:	bd70      	pop	{r4, r5, r6, pc}
     59a:	bf00      	nop
     59c:	100001d0 	ldrdne	r0, [r0], -r0	; <UNPREDICTABLE>
     5a0:	40001000 	andmi	r1, r0, r0
     5a4:	02dc6c00 	sbcseq	r6, ip, #0, 24
     5a8:	4000102c 	andmi	r1, r0, ip, lsr #32
     5ac:	20000018 	andcs	r0, r0, r8, lsl r0

000005b0 <reinit_uart>:
    ASSERT(UARTBaseValid(ui32Base));

    //
    // Enable the FIFO.
    //
    HWREG(ui32Base + UART_O_LCRH) |= UART_LCRH_FEN;
     5b0:	4a08      	ldr	r2, [pc, #32]	; (5d4 <reinit_uart+0x24>)
	__pi_uart_setrate (urates [0], __pi_uart);
     5b2:	4909      	ldr	r1, [pc, #36]	; (5d8 <reinit_uart+0x28>)
     5b4:	6813      	ldr	r3, [r2, #0]
     5b6:	f043 0310 	orr.w	r3, r3, #16
     5ba:	6013      	str	r3, [r2, #0]
    HWREG(ui32Base + UART_O_IFLS) = ui32TxLevel | ui32RxLevel;
     5bc:	2212      	movs	r2, #18
     5be:	4b07      	ldr	r3, [pc, #28]	; (5dc <reinit_uart+0x2c>)
     5c0:	601a      	str	r2, [r3, #0]
    //
    // Check the arguments.
    //
    ASSERT( UARTBaseValid( ui32Base ));

    HWREG( ui32Base + UART_O_CTL ) &= ~( UART_CTL_CTSEN | UART_CTL_RTSEN );
     5c2:	4a07      	ldr	r2, [pc, #28]	; (5e0 <reinit_uart+0x30>)
     5c4:	6813      	ldr	r3, [r2, #0]
     5c6:	f423 4340 	bic.w	r3, r3, #49152	; 0xc000
     5ca:	6013      	str	r3, [r2, #0]
     5cc:	4b05      	ldr	r3, [pc, #20]	; (5e4 <reinit_uart+0x34>)
     5ce:	8818      	ldrh	r0, [r3, #0]
     5d0:	f7ff bfc4 	b.w	55c <__pi_uart_setrate>
     5d4:	4000102c 	andmi	r1, r0, ip, lsr #32
     5d8:	20000088 	andcs	r0, r0, r8, lsl #1
     5dc:	40001034 	andmi	r1, r0, r4, lsr r0
     5e0:	40001030 	andmi	r1, r0, r0, lsr r0
     5e4:	20000018 	andcs	r0, r0, r8, lsl r0

000005e8 <ioreq_uart_a>:
	switch (operation) {
     5e8:	3001      	adds	r0, #1
static int ioreq_uart_a (int operation, char *buf, int len) {
     5ea:	e92d 43f8 	stmdb	sp!, {r3, r4, r5, r6, r7, r8, r9, lr}
     5ee:	460d      	mov	r5, r1
     5f0:	4614      	mov	r4, r2
     5f2:	2803      	cmp	r0, #3
     5f4:	d86e      	bhi.n	6d4 <ioreq_uart_a+0xec>
     5f6:	e8df f000 	tbb	[pc, r0]
     5fa:	5a471253 	bpl	11c4f4e <__ccfg+0x11a4fa6>
				*buf++ = uart_a_read;
     5fe:	f8d9 3000 	ldr.w	r3, [r9]
				len--;
     602:	3e01      	subs	r6, #1
				*buf++ = uart_a_read;
     604:	f805 3b01 	strb.w	r3, [r5], #1
			while (len && uart_a_char_available) {
     608:	b11e      	cbz	r6, 612 <ioreq_uart_a+0x2a>
     60a:	f8d8 3000 	ldr.w	r3, [r8]
     60e:	06d8      	lsls	r0, r3, #27
     610:	d5f5      	bpl.n	5fe <ioreq_uart_a+0x16>
			if (len != operation) {
     612:	42a6      	cmp	r6, r4
     614:	d00a      	beq.n	62c <ioreq_uart_a+0x44>
				return operation - len;
     616:	1ba4      	subs	r4, r4, r6
}
     618:	4620      	mov	r0, r4
     61a:	e8bd 83f8 	ldmia.w	sp!, {r3, r4, r5, r6, r7, r8, r9, pc}
				*buf++ = uart_a_read;
     61e:	4616      	mov	r6, r2
			uart_a_disable_int;
     620:	4f2e      	ldr	r7, [pc, #184]	; (6dc <ioreq_uart_a+0xf4>)
			if (uart_a_char_available) {
     622:	f8df 80cc 	ldr.w	r8, [pc, #204]	; 6f0 <ioreq_uart_a+0x108>
				*buf++ = uart_a_read;
     626:	f8df 90cc 	ldr.w	r9, [pc, #204]	; 6f4 <ioreq_uart_a+0x10c>
     62a:	e7ed      	b.n	608 <ioreq_uart_a+0x20>
			uart_a_disable_int;
     62c:	683b      	ldr	r3, [r7, #0]
     62e:	2015      	movs	r0, #21
     630:	695b      	ldr	r3, [r3, #20]
     632:	4798      	blx	r3
			if (uart_a_char_available) {
     634:	f8d8 3000 	ldr.w	r3, [r8]
     638:	06d9      	lsls	r1, r3, #27
     63a:	d404      	bmi.n	646 <ioreq_uart_a+0x5e>
				uart_a_enable_int;
     63c:	683b      	ldr	r3, [r7, #0]
     63e:	2015      	movs	r0, #21
     640:	691b      	ldr	r3, [r3, #16]
     642:	4798      	blx	r3
				goto Redo_rx;
     644:	e7e0      	b.n	608 <ioreq_uart_a+0x20>
			_BIS (__pi_uart->flags, UART_FLAGS_IN);
     646:	4a26      	ldr	r2, [pc, #152]	; (6e0 <ioreq_uart_a+0xf8>)
     648:	7993      	ldrb	r3, [r2, #6]
     64a:	f043 0380 	orr.w	r3, r3, #128	; 0x80
			return -2;
     64e:	f06f 0401 	mvn.w	r4, #1
			_BIS (__pi_uart->flags, UART_FLAGS_OUT);
     652:	7193      	strb	r3, [r2, #6]
			return -2;
     654:	e7e0      	b.n	618 <ioreq_uart_a+0x30>
				uart_a_write (*buf);
     656:	f815 3b01 	ldrb.w	r3, [r5], #1
				len--;
     65a:	3e01      	subs	r6, #1
				uart_a_write (*buf);
     65c:	f8c9 3000 	str.w	r3, [r9]
			while (len && uart_a_room_in_tx) {
     660:	b11e      	cbz	r6, 66a <ioreq_uart_a+0x82>
     662:	f8d8 3000 	ldr.w	r3, [r8]
     666:	069a      	lsls	r2, r3, #26
     668:	d5f5      	bpl.n	656 <ioreq_uart_a+0x6e>
			if (len != operation) {
     66a:	42a6      	cmp	r6, r4
     66c:	d1d3      	bne.n	616 <ioreq_uart_a+0x2e>
			uart_a_disable_int;
     66e:	683b      	ldr	r3, [r7, #0]
     670:	2015      	movs	r0, #21
     672:	695b      	ldr	r3, [r3, #20]
     674:	4798      	blx	r3
			if (uart_a_room_in_tx) {
     676:	f8d8 3000 	ldr.w	r3, [r8]
     67a:	069b      	lsls	r3, r3, #26
     67c:	d40b      	bmi.n	696 <ioreq_uart_a+0xae>
				uart_a_enable_int;
     67e:	683b      	ldr	r3, [r7, #0]
     680:	2015      	movs	r0, #21
     682:	691b      	ldr	r3, [r3, #16]
     684:	4798      	blx	r3
				goto Redo_tx;
     686:	e7eb      	b.n	660 <ioreq_uart_a+0x78>
				*buf++ = uart_a_read;
     688:	4616      	mov	r6, r2
			uart_a_disable_int;
     68a:	4f14      	ldr	r7, [pc, #80]	; (6dc <ioreq_uart_a+0xf4>)
			if (uart_a_room_in_tx) {
     68c:	f8df 8060 	ldr.w	r8, [pc, #96]	; 6f0 <ioreq_uart_a+0x108>
				uart_a_write (*buf);
     690:	f8df 9060 	ldr.w	r9, [pc, #96]	; 6f4 <ioreq_uart_a+0x10c>
     694:	e7e4      	b.n	660 <ioreq_uart_a+0x78>
			_BIS (__pi_uart->flags, UART_FLAGS_OUT);
     696:	4a12      	ldr	r2, [pc, #72]	; (6e0 <ioreq_uart_a+0xf8>)
     698:	7993      	ldrb	r3, [r2, #6]
     69a:	f043 0340 	orr.w	r3, r3, #64	; 0x40
     69e:	e7d6      	b.n	64e <ioreq_uart_a+0x66>
			uart_a_enable_int;
     6a0:	4b0e      	ldr	r3, [pc, #56]	; (6dc <ioreq_uart_a+0xf4>)
     6a2:	2015      	movs	r0, #21
     6a4:	681b      	ldr	r3, [r3, #0]
			return 0;
     6a6:	2400      	movs	r4, #0
			uart_a_enable_int;
     6a8:	691b      	ldr	r3, [r3, #16]
     6aa:	4798      	blx	r3
			return 0;
     6ac:	e7b4      	b.n	618 <ioreq_uart_a+0x30>
			if (len == UART_CNTRL_SETRATE) {
     6ae:	2a01      	cmp	r2, #1
     6b0:	d109      	bne.n	6c6 <ioreq_uart_a+0xde>
				if (__pi_uart_setrate (*((word*)buf),
     6b2:	490b      	ldr	r1, [pc, #44]	; (6e0 <ioreq_uart_a+0xf8>)
     6b4:	8828      	ldrh	r0, [r5, #0]
     6b6:	f7ff ff51 	bl	55c <__pi_uart_setrate>
     6ba:	2800      	cmp	r0, #0
     6bc:	d1ac      	bne.n	618 <ioreq_uart_a+0x30>
				syserror (EREQPAR, "uar");
     6be:	2003      	movs	r0, #3
     6c0:	4908      	ldr	r1, [pc, #32]	; (6e4 <ioreq_uart_a+0xfc>)
			syserror (ENOOPER, "uai");
     6c2:	f7ff fe3b 	bl	33c <__pi_syserror>
			if (len == UART_CNTRL_GETRATE) {
     6c6:	2a02      	cmp	r2, #2
     6c8:	d104      	bne.n	6d4 <ioreq_uart_a+0xec>
	return urates [0];
     6ca:	4b07      	ldr	r3, [pc, #28]	; (6e8 <ioreq_uart_a+0x100>)
				return 1;
     6cc:	2401      	movs	r4, #1
				*((word*)buf) = __pi_uart_getrate (__pi_uart);
     6ce:	881b      	ldrh	r3, [r3, #0]
     6d0:	800b      	strh	r3, [r1, #0]
				return 1;
     6d2:	e7a1      	b.n	618 <ioreq_uart_a+0x30>
			syserror (ENOOPER, "uai");
     6d4:	2002      	movs	r0, #2
     6d6:	4905      	ldr	r1, [pc, #20]	; (6ec <ioreq_uart_a+0x104>)
     6d8:	e7f3      	b.n	6c2 <ioreq_uart_a+0xda>
     6da:	bf00      	nop
     6dc:	100001b0 			; <UNDEFINED> instruction: 0x100001b0
     6e0:	20000088 	andcs	r0, r0, r8, lsl #1
     6e4:	00002b93 	muleq	r0, r3, fp
     6e8:	20000018 	andcs	r0, r0, r8, lsl r0
     6ec:	00002b97 	muleq	r0, r7, fp
     6f0:	40001018 	andmi	r1, r0, r8, lsl r0
     6f4:	40001000 	andmi	r1, r0, r0

000006f8 <UART0IntHandler>:
    HWREG(ui32Base + UART_O_ICR) = ui32IntFlags;
     6f8:	f240 72f2 	movw	r2, #2034	; 0x7f2
}

void UART0IntHandler () {
     6fc:	b530      	push	{r4, r5, lr}
     6fe:	4b29      	ldr	r3, [pc, #164]	; (7a4 <UART0IntHandler+0xac>)

	uart_a_clear_interrupts;

	if (uart_a_char_available && (__pi_uart->flags & UART_FLAGS_IN)) {
     700:	4c29      	ldr	r4, [pc, #164]	; (7a8 <UART0IntHandler+0xb0>)
     702:	601a      	str	r2, [r3, #0]
     704:	6822      	ldr	r2, [r4, #0]
     706:	06d5      	lsls	r5, r2, #27
     708:	d423      	bmi.n	752 <UART0IntHandler+0x5a>
     70a:	4b28      	ldr	r3, [pc, #160]	; (7ac <UART0IntHandler+0xb4>)
     70c:	799a      	ldrb	r2, [r3, #6]
     70e:	0610      	lsls	r0, r2, #24
     710:	d51f      	bpl.n	752 <UART0IntHandler+0x5a>
		_BIC (__pi_uart->flags, UART_FLAGS_IN);
     712:	799a      	ldrb	r2, [r3, #6]
     714:	f002 027f 	and.w	r2, r2, #127	; 0x7f
     718:	719a      	strb	r2, [r3, #6]
		RISE_N_SHINE;
     71a:	4a25      	ldr	r2, [pc, #148]	; (7b0 <UART0IntHandler+0xb8>)
     71c:	7813      	ldrb	r3, [r2, #0]
     71e:	f043 0302 	orr.w	r3, r3, #2
     722:	7013      	strb	r3, [r2, #0]
		i_trigger (devevent (UART_A, READ));
     724:	4b23      	ldr	r3, [pc, #140]	; (7b4 <UART0IntHandler+0xbc>)
     726:	681a      	ldr	r2, [r3, #0]
     728:	b19a      	cbz	r2, 752 <UART0IntHandler+0x5a>
     72a:	4610      	mov	r0, r2
     72c:	2300      	movs	r3, #0
     72e:	f830 1b10 	ldrh.w	r1, [r0], #16
     732:	f001 0107 	and.w	r1, r1, #7
     736:	4299      	cmp	r1, r3
     738:	dd09      	ble.n	74e <UART0IntHandler+0x56>
     73a:	f850 5033 	ldr.w	r5, [r0, r3, lsl #3]
     73e:	3301      	adds	r3, #1
     740:	f515 7f81 	cmn.w	r5, #258	; 0x102
     744:	d1f7      	bne.n	736 <UART0IntHandler+0x3e>
     746:	eb02 03c3 	add.w	r3, r2, r3, lsl #3
     74a:	889b      	ldrh	r3, [r3, #4]
     74c:	8013      	strh	r3, [r2, #0]
     74e:	6ad2      	ldr	r2, [r2, #44]	; 0x2c
     750:	e7ea      	b.n	728 <UART0IntHandler+0x30>
	}

	if (uart_a_room_in_tx && (__pi_uart->flags & UART_FLAGS_OUT)) {
     752:	6823      	ldr	r3, [r4, #0]
     754:	0699      	lsls	r1, r3, #26
     756:	d424      	bmi.n	7a2 <UART0IntHandler+0xaa>
     758:	4b14      	ldr	r3, [pc, #80]	; (7ac <UART0IntHandler+0xb4>)
     75a:	799a      	ldrb	r2, [r3, #6]
     75c:	0652      	lsls	r2, r2, #25
     75e:	d520      	bpl.n	7a2 <UART0IntHandler+0xaa>
		_BIC (__pi_uart->flags, UART_FLAGS_OUT);
		RISE_N_SHINE;
		i_trigger (devevent (UART_A, WRITE));
     760:	f46f 7480 	mvn.w	r4, #256	; 0x100
		_BIC (__pi_uart->flags, UART_FLAGS_OUT);
     764:	799a      	ldrb	r2, [r3, #6]
     766:	f002 02bf 	and.w	r2, r2, #191	; 0xbf
     76a:	719a      	strb	r2, [r3, #6]
		RISE_N_SHINE;
     76c:	4a10      	ldr	r2, [pc, #64]	; (7b0 <UART0IntHandler+0xb8>)
     76e:	7813      	ldrb	r3, [r2, #0]
     770:	f043 0302 	orr.w	r3, r3, #2
     774:	7013      	strb	r3, [r2, #0]
		i_trigger (devevent (UART_A, WRITE));
     776:	4b0f      	ldr	r3, [pc, #60]	; (7b4 <UART0IntHandler+0xbc>)
     778:	681a      	ldr	r2, [r3, #0]
     77a:	b192      	cbz	r2, 7a2 <UART0IntHandler+0xaa>
     77c:	4610      	mov	r0, r2
     77e:	2300      	movs	r3, #0
     780:	f830 1b10 	ldrh.w	r1, [r0], #16
     784:	f001 0107 	and.w	r1, r1, #7
     788:	4299      	cmp	r1, r3
     78a:	dd08      	ble.n	79e <UART0IntHandler+0xa6>
     78c:	f850 5033 	ldr.w	r5, [r0, r3, lsl #3]
     790:	3301      	adds	r3, #1
     792:	42a5      	cmp	r5, r4
     794:	d1f8      	bne.n	788 <UART0IntHandler+0x90>
     796:	eb02 03c3 	add.w	r3, r2, r3, lsl #3
     79a:	889b      	ldrh	r3, [r3, #4]
     79c:	8013      	strh	r3, [r2, #0]
     79e:	6ad2      	ldr	r2, [r2, #44]	; 0x2c
     7a0:	e7eb      	b.n	77a <UART0IntHandler+0x82>
	}

	RTNI;
}
     7a2:	bd30      	pop	{r4, r5, pc}
     7a4:	40001044 	andmi	r1, r0, r4, asr #32
     7a8:	40001018 	andmi	r1, r0, r8, lsl r0
     7ac:	20000088 	andcs	r0, r0, r8, lsl #1
     7b0:	2000009c 	mulcs	r0, ip, r0
     7b4:	2000001c 	andcs	r0, r0, ip, lsl r0

000007b8 <__buttons_setirq>:

// ============================================================================

#ifdef	BUTTON_LIST

void __buttons_setirq (int val) {
     7b8:	b570      	push	{r4, r5, r6, lr}
     7ba:	b672      	cpsid	i
    ASSERT( dioNumberLegal( dioNumber ));

    //
    // Clear the event status for the specified DIO.
    //
    HWREG( GPIO_BASE + GPIO_O_EVFLAGS31_0 ) = ( 1 << dioNumber );
     7bc:	2101      	movs	r1, #1
	int i;
	lword bn;

	cli;
	for (i = 0; i < N_BUTTONS; i++) {
		bn = BUTTON_GPIO (__button_list [i]);
     7be:	4e0c      	ldr	r6, [pc, #48]	; (7f0 <__buttons_setirq+0x38>)
     7c0:	4d0c      	ldr	r5, [pc, #48]	; (7f4 <__buttons_setirq+0x3c>)
     7c2:	8833      	ldrh	r3, [r6, #0]
		GPIO_clearEventDio (bn);
		HWREGBITW (IOC_BASE + (bn << 2), IOC_IOCFG0_EDGE_IRQ_EN_BITN) =
     7c4:	4c0c      	ldr	r4, [pc, #48]	; (7f8 <__buttons_setirq+0x40>)
		bn = BUTTON_GPIO (__button_list [i]);
     7c6:	0a1b      	lsrs	r3, r3, #8
     7c8:	fa01 f203 	lsl.w	r2, r1, r3
     7cc:	602a      	str	r2, [r5, #0]
		HWREGBITW (IOC_BASE + (bn << 2), IOC_IOCFG0_EDGE_IRQ_EN_BITN) =
     7ce:	01da      	lsls	r2, r3, #7
		bn = BUTTON_GPIO (__button_list [i]);
     7d0:	8873      	ldrh	r3, [r6, #2]
		HWREGBITW (IOC_BASE + (bn << 2), IOC_IOCFG0_EDGE_IRQ_EN_BITN) =
     7d2:	f102 7281 	add.w	r2, r2, #16908288	; 0x1020000
		bn = BUTTON_GPIO (__button_list [i]);
     7d6:	0a1b      	lsrs	r3, r3, #8
     7d8:	4099      	lsls	r1, r3
		HWREGBITW (IOC_BASE + (bn << 2), IOC_IOCFG0_EDGE_IRQ_EN_BITN) =
     7da:	01db      	lsls	r3, r3, #7
     7dc:	f103 7381 	add.w	r3, r3, #16908288	; 0x1020000
     7e0:	4322      	orrs	r2, r4
     7e2:	4323      	orrs	r3, r4
     7e4:	6010      	str	r0, [r2, #0]
     7e6:	6029      	str	r1, [r5, #0]
     7e8:	6018      	str	r0, [r3, #0]
  __ASM volatile ("cpsie i" : : : "memory");
     7ea:	b662      	cpsie	i
			val;
	}
	sti;
}
     7ec:	bd70      	pop	{r4, r5, r6, pc}
     7ee:	bf00      	nop
     7f0:	00002c80 	andeq	r2, r0, r0, lsl #25
     7f4:	400220e0 	andmi	r2, r2, r0, ror #1
     7f8:	42000048 	andmi	r0, r0, #72	; 0x48

000007fc <__pinlist_setirq>:

#endif

#ifdef	INPUT_PIN_LIST

void __pinlist_setirq (int val) {
     7fc:	b5f0      	push	{r4, r5, r6, r7, lr}
  __ASM volatile ("cpsid i" : : : "memory");
     7fe:	b672      	cpsid	i

	int i;
	lword bn;

	cli;
	for (i = 0; i < N_PINLIST; i++) {
     800:	2200      	movs	r2, #0
     802:	2601      	movs	r6, #1
		bn = INPUT_PINLIST_GPIO (__input_pins [i]);
     804:	4f09      	ldr	r7, [pc, #36]	; (82c <__pinlist_setirq+0x30>)
     806:	4c0a      	ldr	r4, [pc, #40]	; (830 <__pinlist_setirq+0x34>)
		GPIO_clearEventDio (bn);
		HWREGBITW (IOC_BASE + (bn << 2), IOC_IOCFG0_EDGE_IRQ_EN_BITN) =
     808:	490a      	ldr	r1, [pc, #40]	; (834 <__pinlist_setirq+0x38>)
		bn = INPUT_PINLIST_GPIO (__input_pins [i]);
     80a:	5cbb      	ldrb	r3, [r7, r2]
	for (i = 0; i < N_PINLIST; i++) {
     80c:	3201      	adds	r2, #1
		bn = INPUT_PINLIST_GPIO (__input_pins [i]);
     80e:	f003 037f 	and.w	r3, r3, #127	; 0x7f
     812:	fa06 f503 	lsl.w	r5, r6, r3
		HWREGBITW (IOC_BASE + (bn << 2), IOC_IOCFG0_EDGE_IRQ_EN_BITN) =
     816:	01db      	lsls	r3, r3, #7
     818:	f103 7381 	add.w	r3, r3, #16908288	; 0x1020000
     81c:	430b      	orrs	r3, r1
	for (i = 0; i < N_PINLIST; i++) {
     81e:	2a04      	cmp	r2, #4
     820:	6025      	str	r5, [r4, #0]
		HWREGBITW (IOC_BASE + (bn << 2), IOC_IOCFG0_EDGE_IRQ_EN_BITN) =
     822:	6018      	str	r0, [r3, #0]
	for (i = 0; i < N_PINLIST; i++) {
     824:	d1f1      	bne.n	80a <__pinlist_setirq+0xe>
  __ASM volatile ("cpsie i" : : : "memory");
     826:	b662      	cpsie	i
			val;
	}
	sti;
}
     828:	bdf0      	pop	{r4, r5, r6, r7, pc}
     82a:	bf00      	nop
     82c:	00002c7c 	andeq	r2, r0, ip, ror ip
     830:	400220e0 	andmi	r2, r2, r0, ror #1
     834:	42000048 	andmi	r0, r0, #72	; 0x48

00000838 <GPIOIntHandler>:
void GPIOIntHandler () {
     838:	b570      	push	{r4, r5, r6, lr}
if (buttons_int) {
     83a:	4c23      	ldr	r4, [pc, #140]	; (8c8 <GPIOIntHandler+0x90>)
     83c:	6822      	ldr	r2, [r4, #0]
     83e:	f412 4fc0 	tst.w	r2, #24576	; 0x6000
     842:	d01e      	beq.n	882 <GPIOIntHandler+0x4a>
	buttons_disable ();
     844:	2000      	movs	r0, #0
     846:	f7ff ffb7 	bl	7b8 <__buttons_setirq>
	i_trigger ((aword)&__button_list);
     84a:	4b20      	ldr	r3, [pc, #128]	; (8cc <GPIOIntHandler+0x94>)
     84c:	4d20      	ldr	r5, [pc, #128]	; (8d0 <GPIOIntHandler+0x98>)
     84e:	681a      	ldr	r2, [r3, #0]
     850:	b192      	cbz	r2, 878 <GPIOIntHandler+0x40>
     852:	4610      	mov	r0, r2
     854:	2300      	movs	r3, #0
     856:	f830 1b10 	ldrh.w	r1, [r0], #16
     85a:	f001 0107 	and.w	r1, r1, #7
     85e:	4299      	cmp	r1, r3
     860:	dd08      	ble.n	874 <GPIOIntHandler+0x3c>
     862:	f850 6033 	ldr.w	r6, [r0, r3, lsl #3]
     866:	3301      	adds	r3, #1
     868:	42ae      	cmp	r6, r5
     86a:	d1f8      	bne.n	85e <GPIOIntHandler+0x26>
     86c:	eb02 03c3 	add.w	r3, r2, r3, lsl #3
     870:	889b      	ldrh	r3, [r3, #4]
     872:	8013      	strh	r3, [r2, #0]
     874:	6ad2      	ldr	r2, [r2, #44]	; 0x2c
     876:	e7eb      	b.n	850 <GPIOIntHandler+0x18>
	RISE_N_SHINE;
     878:	4a16      	ldr	r2, [pc, #88]	; (8d4 <GPIOIntHandler+0x9c>)
     87a:	7813      	ldrb	r3, [r2, #0]
     87c:	f043 0302 	orr.w	r3, r3, #2
     880:	7013      	strb	r3, [r2, #0]
if (pin_sensor_int) {
     882:	6823      	ldr	r3, [r4, #0]
     884:	f013 5ff0 	tst.w	r3, #503316480	; 0x1e000000
     888:	d01d      	beq.n	8c6 <GPIOIntHandler+0x8e>
	i_trigger ((aword)(&__input_pins));
     88a:	4b10      	ldr	r3, [pc, #64]	; (8cc <GPIOIntHandler+0x94>)
     88c:	4c12      	ldr	r4, [pc, #72]	; (8d8 <GPIOIntHandler+0xa0>)
     88e:	6818      	ldr	r0, [r3, #0]
     890:	b190      	cbz	r0, 8b8 <GPIOIntHandler+0x80>
     892:	4601      	mov	r1, r0
     894:	2300      	movs	r3, #0
     896:	f831 2b10 	ldrh.w	r2, [r1], #16
     89a:	f002 0207 	and.w	r2, r2, #7
     89e:	429a      	cmp	r2, r3
     8a0:	dd08      	ble.n	8b4 <GPIOIntHandler+0x7c>
     8a2:	f851 5033 	ldr.w	r5, [r1, r3, lsl #3]
     8a6:	3301      	adds	r3, #1
     8a8:	42a5      	cmp	r5, r4
     8aa:	d1f8      	bne.n	89e <GPIOIntHandler+0x66>
     8ac:	eb00 03c3 	add.w	r3, r0, r3, lsl #3
     8b0:	889b      	ldrh	r3, [r3, #4]
     8b2:	8003      	strh	r3, [r0, #0]
     8b4:	6ac0      	ldr	r0, [r0, #44]	; 0x2c
     8b6:	e7eb      	b.n	890 <GPIOIntHandler+0x58>
	__pinsen_disable_and_clear;
     8b8:	f7ff ffa0 	bl	7fc <__pinlist_setirq>
	RISE_N_SHINE;
     8bc:	4a05      	ldr	r2, [pc, #20]	; (8d4 <GPIOIntHandler+0x9c>)
     8be:	7813      	ldrb	r3, [r2, #0]
     8c0:	f043 0302 	orr.w	r3, r3, #2
     8c4:	7013      	strb	r3, [r2, #0]
}
     8c6:	bd70      	pop	{r4, r5, r6, pc}
     8c8:	400220e0 	andmi	r2, r2, r0, ror #1
     8cc:	2000001c 	andcs	r0, r0, ip, lsl r0
     8d0:	00002c80 	andeq	r2, r0, r0, lsl #25
     8d4:	2000009c 	mulcs	r0, ip, r0
     8d8:	00002c7c 	andeq	r2, r0, ip, ror ip

000008dc <system_init>:
#endif

// ============================================================================
// ============================================================================

void system_init () {
     8dc:	e92d 47f0 	stmdb	sp!, {r4, r5, r6, r7, r8, r9, sl, lr}

	__pi_ondomain (PRCM_DOMAIN_PERIPH);

	PRCMPeripheralRunEnable (PRCM_PERIPH_GPIO);
     8e0:	4c58      	ldr	r4, [pc, #352]	; (a44 <system_init+0x168>)
	__pi_ondomain (PRCM_DOMAIN_PERIPH);
     8e2:	2004      	movs	r0, #4
     8e4:	f7ff fd0c 	bl	300 <__pi_ondomain>
	PRCMPeripheralRunEnable (PRCM_PERIPH_GPIO);
     8e8:	6823      	ldr	r3, [r4, #0]
     8ea:	f44f 60a0 	mov.w	r0, #1280	; 0x500
     8ee:	69db      	ldr	r3, [r3, #28]
     8f0:	4798      	blx	r3
	PRCMPeripheralSleepEnable (PRCM_PERIPH_GPIO);
     8f2:	6823      	ldr	r3, [r4, #0]
     8f4:	f44f 60a0 	mov.w	r0, #1280	; 0x500
     8f8:	6a5b      	ldr	r3, [r3, #36]	; 0x24
     8fa:	4798      	blx	r3
	PRCMPeripheralDeepSleepEnable (PRCM_PERIPH_GPIO);
     8fc:	6823      	ldr	r3, [r4, #0]
     8fe:	f44f 60a0 	mov.w	r0, #1280	; 0x500
     902:	6adb      	ldr	r3, [r3, #44]	; 0x2c
     904:	4798      	blx	r3
PRCMLoadSet(void)
{
    //
    // Enable the update of all load related registers.
    //
    HWREG(PRCM_NONBUF_BASE + PRCM_O_CLKLOADCTL) = PRCM_CLKLOADCTL_LOAD;
     906:	2301      	movs	r3, #1
	for (int i = 0; i < sizeof (port_confs) / sizeof (lword); i++) {
     908:	2600      	movs	r6, #0
     90a:	4c4f      	ldr	r4, [pc, #316]	; (a48 <system_init+0x16c>)
     90c:	4f4f      	ldr	r7, [pc, #316]	; (a4c <system_init+0x170>)
		HWREG (IOC_BASE + (pin << 2)) = port_confs [i] & 0x7f077f3f;
     90e:	f8df c17c 	ldr.w	ip, [pc, #380]	; a8c <system_init+0x1b0>
    HWREGBITW( GPIO_BASE + GPIO_O_DOE31_0, dioNumber ) = outputEnableValue;
     912:	f8df e17c 	ldr.w	lr, [pc, #380]	; a90 <system_init+0x1b4>
    HWREG( GPIO_BASE + GPIO_O_DOUTCLR31_0 ) = ( 1 << dioNumber );
     916:	f8df 8140 	ldr.w	r8, [pc, #320]	; a58 <system_init+0x17c>
    HWREG( GPIO_BASE + GPIO_O_DOUTSET31_0 ) = ( 1 << dioNumber );
     91a:	f8df 9134 	ldr.w	r9, [pc, #308]	; a50 <system_init+0x174>
     91e:	6023      	str	r3, [r4, #0]
		pin = (port_confs [i] >> 19) & 0x1f;
     920:	f857 5b04 	ldr.w	r5, [r7], #4
	for (int i = 0; i < sizeof (port_confs) / sizeof (lword); i++) {
     924:	3601      	adds	r6, #1
		pin = (port_confs [i] >> 19) & 0x1f;
     926:	f3c5 42c4 	ubfx	r2, r5, #19, #5
		HWREG (IOC_BASE + (pin << 2)) = port_confs [i] & 0x7f077f3f;
     92a:	0091      	lsls	r1, r2, #2
     92c:	f101 4080 	add.w	r0, r1, #1073741824	; 0x40000000
     930:	f500 2001 	add.w	r0, r0, #528384	; 0x81000
     934:	ea05 0a0c 	and.w	sl, r5, ip
     938:	f8c0 a000 	str.w	sl, [r0]
		if (port_confs [i] & 0x80)
     93c:	0628      	lsls	r0, r5, #24
    HWREGBITW( GPIO_BASE + GPIO_O_DOE31_0, dioNumber ) = outputEnableValue;
     93e:	bf44      	itt	mi
     940:	ea41 010e 	orrmi.w	r1, r1, lr
     944:	600b      	strmi	r3, [r1, #0]
		if (port_confs [i] & 0x40)
     946:	fa03 f202 	lsl.w	r2, r3, r2
     94a:	0669      	lsls	r1, r5, #25
    HWREG( GPIO_BASE + GPIO_O_DOUTSET31_0 ) = ( 1 << dioNumber );
     94c:	bf4c      	ite	mi
     94e:	f8c9 2000 	strmi.w	r2, [r9]
    HWREG( GPIO_BASE + GPIO_O_DOUTCLR31_0 ) = ( 1 << dioNumber );
     952:	f8c8 2000 	strpl.w	r2, [r8]
	for (int i = 0; i < sizeof (port_confs) / sizeof (lword); i++) {
     956:	2e11      	cmp	r6, #17
     958:	d1e2      	bne.n	920 <system_init+0x44>
    HWREG( GPIO_BASE + GPIO_O_DOUTSET31_0 ) = ( 1 << dioNumber );
     95a:	2540      	movs	r5, #64	; 0x40
     95c:	2680      	movs	r6, #128	; 0x80
     95e:	4b3c      	ldr	r3, [pc, #240]	; (a50 <system_init+0x174>)

	// Initialize DIO ports
	port_config ();

#if	LEDS_DRIVER
	all_leds_blink;
     960:	493c      	ldr	r1, [pc, #240]	; (a54 <system_init+0x178>)
     962:	601d      	str	r5, [r3, #0]
     964:	601e      	str	r6, [r3, #0]
     966:	780b      	ldrb	r3, [r1, #0]
     968:	780b      	ldrb	r3, [r1, #0]
     96a:	20c8      	movs	r0, #200	; 0xc8
     96c:	f36f 1307 	bfc	r3, #4, #4
     970:	700b      	strb	r3, [r1, #0]
     972:	f7ff fcaf 	bl	2d4 <mdelay>
    HWREG( GPIO_BASE + GPIO_O_DOUTCLR31_0 ) = ( 1 << dioNumber );
     976:	4b38      	ldr	r3, [pc, #224]	; (a58 <system_init+0x17c>)
     978:	20c8      	movs	r0, #200	; 0xc8
     97a:	601d      	str	r5, [r3, #0]
     97c:	601e      	str	r6, [r3, #0]

	// The autoincrement value on channel 2 set to 1 msec
	AONRTCIncValueCh2Set (TCI_TINCR (1));
	// Enable continuous operation of channel 2
	HWREGBITW (AON_RTC_BASE + AON_RTC_O_CHCTL,
		AON_RTC_CHCTL_CH2_CONT_EN_BITN) = 1;
     97e:	2601      	movs	r6, #1
	all_leds_blink;
     980:	780b      	ldrb	r3, [r1, #0]
     982:	780b      	ldrb	r3, [r1, #0]
     984:	f36f 1307 	bfc	r3, #4, #4
     988:	700b      	strb	r3, [r1, #0]
     98a:	f7ff fca3 	bl	2d4 <mdelay>
//
//*****************************************************************************
__STATIC_INLINE void
AONRTCIncValueCh2Set(uint32_t ui32IncValue)
{
    HWREG(AON_RTC_BASE + AON_RTC_O_CH2CMPINC) = ui32IncValue;
     98e:	4b33      	ldr	r3, [pc, #204]	; (a5c <system_init+0x180>)

	// Define the combined event as consisting of channels 0 and 2 and
	// enable the clock
	HWREG (AON_RTC_BASE + AON_RTC_O_CTL) =
     990:	4a33      	ldr	r2, [pc, #204]	; (a60 <system_init+0x184>)
     992:	601d      	str	r5, [r3, #0]
		AON_RTC_CHCTL_CH2_CONT_EN_BITN) = 1;
     994:	4b33      	ldr	r3, [pc, #204]	; (a64 <system_init+0x188>)
		// For the radio
		AON_RTC_CTL_RTC_UPD_EN |
		AON_RTC_CTL_EN;

	// Enable RTC interrupts
	IntEnable (INT_AON_RTC_COMB);
     996:	4d34      	ldr	r5, [pc, #208]	; (a68 <system_init+0x18c>)
		AON_RTC_CHCTL_CH2_CONT_EN_BITN) = 1;
     998:	601e      	str	r6, [r3, #0]
	HWREG (AON_RTC_BASE + AON_RTC_O_CTL) =
     99a:	4b34      	ldr	r3, [pc, #208]	; (a6c <system_init+0x190>)
	IntEnable (INT_AON_RTC_COMB);
     99c:	2014      	movs	r0, #20
	HWREG (AON_RTC_BASE + AON_RTC_O_CTL) =
     99e:	601a      	str	r2, [r3, #0]
	IntEnable (INT_AON_RTC_COMB);
     9a0:	682b      	ldr	r3, [r5, #0]
     9a2:	691b      	ldr	r3, [r3, #16]
     9a4:	4798      	blx	r3

	// Initialize the memory allocator
	__pi_malloc_init ();
     9a6:	f000 fb99 	bl	10dc <__pi_malloc_init>

	// Enable GPIO interrupts
	IntEnable (INT_AON_GPIO_EDGE);
     9aa:	682b      	ldr	r3, [r5, #0]
     9ac:	2010      	movs	r0, #16
     9ae:	691b      	ldr	r3, [r3, #16]
     9b0:	4798      	blx	r3
		EMERGENCY_STARTUP_ACTION;
	}
#endif

#ifdef	NEED_SERIAL_DOMAIN
	__pi_ondomain (PRCM_DOMAIN_SERIAL);
     9b2:	2002      	movs	r0, #2
     9b4:	f7ff fca4 	bl	300 <__pi_ondomain>
	PRCMPeripheralRunEnable (PRCM_PERIPH_UART0);
     9b8:	68ab      	ldr	r3, [r5, #8]
     9ba:	f44f 7000 	mov.w	r0, #512	; 0x200
     9be:	69db      	ldr	r3, [r3, #28]
     9c0:	4798      	blx	r3
	PRCMPeripheralSleepEnable (PRCM_PERIPH_UART0);
     9c2:	68ab      	ldr	r3, [r5, #8]
     9c4:	f44f 7000 	mov.w	r0, #512	; 0x200
     9c8:	6a5b      	ldr	r3, [r3, #36]	; 0x24
     9ca:	4798      	blx	r3
	PRCMPeripheralDeepSleepEnable (PRCM_PERIPH_UART0);
     9cc:	68ab      	ldr	r3, [r5, #8]
     9ce:	f44f 7000 	mov.w	r0, #512	; 0x200
     9d2:	6adb      	ldr	r3, [r3, #44]	; 0x2c
     9d4:	4798      	blx	r3
	urates [0] = UART_RATE / 100;
     9d6:	2260      	movs	r2, #96	; 0x60
     9d8:	4b25      	ldr	r3, [pc, #148]	; (a70 <system_init+0x194>)
     9da:	6026      	str	r6, [r4, #0]
     9dc:	801a      	strh	r2, [r3, #0]
	reinit_uart ();
     9de:	f7ff fde7 	bl	5b0 <reinit_uart>
	__pi_init_actuators ();
#endif

#ifdef	EXTRA_INITIALIZERS
	// Extra initialization
	EXTRA_INITIALIZERS;
     9e2:	f000 fdcb 	bl	157c <ee_open>
     9e6:	f000 fdd3 	bl	1590 <ee_close>
#endif
	// If waking from shutdown, unfreeze the I/O
	if (SysCtrlResetSourceGet () == RSTSRC_WAKEUP_FROM_SHUTDOWN) {
     9ea:	f001 ff63 	bl	28b4 <NOROM_SysCtrlResetSourceGet>
     9ee:	2808      	cmp	r0, #8
     9f0:	d11a      	bne.n	a28 <system_init+0x14c>
AONIOCFreezeDisable(void)
{
    //
    // Set the AON IOC latches as transparent.
    //
    HWREG(AON_IOC_BASE + AON_IOC_O_IOCLATCH) = AON_IOC_IOCLATCH_EN;
     9f2:	4b20      	ldr	r3, [pc, #128]	; (a74 <system_init+0x198>)
     9f4:	601e      	str	r6, [r3, #0]
{
    //
    // Open the IO latches at AON_IOC level and in the padring
    //
    AONIOCFreezeDisable();
    HWREG(AON_SYSCTL_BASE + AON_SYSCTL_O_SLEEPCTL) = 1;
     9f6:	f5a3 4380 	sub.w	r3, r3, #16384	; 0x4000
     9fa:	3b04      	subs	r3, #4
     9fc:	601e      	str	r6, [r3, #0]
    HWREG(AON_RTC_BASE + AON_RTC_O_SYNC);
     9fe:	f503 5300 	add.w	r3, r3, #8192	; 0x2000
     a02:	3324      	adds	r3, #36	; 0x24
     a04:	681b      	ldr	r3, [r3, #0]
	}

#if	MAX_DEVICES
	for (int i = UART; i < MAX_DEVICES; i++)
		if (devinit [i] . init != NULL)
			devinit [i] . init (devinit [i] . param);
     a06:	2000      	movs	r0, #0
     a08:	f7ff fc48 	bl	29c <devinit_uart>
    HWREG(ui32Base + UART_O_IMSC) |= ui32IntFlags;
     a0c:	4a1a      	ldr	r2, [pc, #104]	; (a78 <system_init+0x19c>)
#endif

#ifdef	N_UARTS
	// The same for UART_DRIVER and UART_TCV
	enable_uart_interrupts ();
	IntEnable (INT_UART0_COMB);
     a0e:	2015      	movs	r0, #21
     a10:	6813      	ldr	r3, [r2, #0]
     a12:	f043 0370 	orr.w	r3, r3, #112	; 0x70
     a16:	6013      	str	r3, [r2, #0]
     a18:	4b13      	ldr	r3, [pc, #76]	; (a68 <system_init+0x18c>)
     a1a:	681b      	ldr	r3, [r3, #0]
     a1c:	691b      	ldr	r3, [r3, #16]
     a1e:	4798      	blx	r3
#endif
	// Kick the auxiliary timer in case something is needed by the
	// drivers
	tci_run_auxiliary_timer ();
}
     a20:	e8bd 47f0 	ldmia.w	sp!, {r4, r5, r6, r7, r8, r9, sl, lr}
	tci_run_auxiliary_timer ();
     a24:	f7ff bcd4 	b.w	3d0 <tci_run_auxiliary_timer>
		diag ("");
     a28:	4814      	ldr	r0, [pc, #80]	; (a7c <system_init+0x1a0>)
     a2a:	f000 fc45 	bl	12b8 <diag>
		diag ("PicOS v" SYSVER_S "/" SYSVER_R
     a2e:	4814      	ldr	r0, [pc, #80]	; (a80 <system_init+0x1a4>)
     a30:	f000 fc42 	bl	12b8 <diag>
			(word)((aword)STACK_END - (aword)(&__bss_end__)));
     a34:	4913      	ldr	r1, [pc, #76]	; (a84 <system_init+0x1a8>)
		diag ("Leftover RAM: %d bytes",
     a36:	4814      	ldr	r0, [pc, #80]	; (a88 <system_init+0x1ac>)
     a38:	f5c1 4198 	rsb	r1, r1, #19456	; 0x4c00
     a3c:	b289      	uxth	r1, r1
     a3e:	f000 fc3b 	bl	12b8 <diag>
     a42:	e7e0      	b.n	a06 <system_init+0x12a>
     a44:	100001b8 			; <UNDEFINED> instruction: 0x100001b8
     a48:	60082028 	andvs	r2, r8, r8, lsr #32
     a4c:	00002c04 	andeq	r2, r0, r4, lsl #24
     a50:	40022090 	mulmi	r2, r0, r0
     a54:	2000009c 	mulcs	r0, ip, r0
     a58:	400220a0 	andmi	r2, r2, r0, lsr #1
     a5c:	40092024 	andmi	r2, r9, r4, lsr #32
     a60:	00050003 	andeq	r0, r5, r3
     a64:	432402c8 			; <UNDEFINED> instruction: 0x432402c8
     a68:	100001b0 			; <UNDEFINED> instruction: 0x100001b0
     a6c:	40092000 	andmi	r2, r9, r0
     a70:	20000018 	andcs	r0, r0, r8, lsl r0
     a74:	4009400c 	andmi	r4, r9, ip
     a78:	40001038 	andmi	r1, r0, r8, lsr r0
     a7c:	00002b67 	andeq	r2, r0, r7, ror #22
     a80:	00002b9b 	muleq	r0, fp, fp
     a84:	200000bc 	strhcs	r0, [r0], -ip
     a88:	00002be7 	andeq	r2, r0, r7, ror #23
     a8c:	7f077f3f 	svcvc	0x00077f3f
     a90:	42441a00 	submi	r1, r4, #0, 20

00000a94 <__pi_release>:
	return sc;
}

#endif

__attribute__ ((noreturn)) void __pi_release () {
     a94:	e92d 4880 	stmdb	sp!, {r7, fp, lr}
     a98:	b083      	sub	sp, #12
  \details Assigns the given value to the Main Stack Pointer (MSP).
  \param [in]    topOfMainStack  Main Stack Pointer value to set
 */
__attribute__((always_inline)) __STATIC_INLINE void __set_MSP(uint32_t topOfMainStack)
{
  __ASM volatile ("MSR msp, %0" : : "r" (topOfMainStack) : "sp");
     a9a:	4b79      	ldr	r3, [pc, #484]	; (c80 <__pi_release+0x1ec>)
     a9c:	af00      	add	r7, sp, #0
     a9e:	f383 8808 	msr	MSP, r3

	__set_MSP ((lword)(STACK_START));

	check_stack_overflow;
     aa2:	f2a3 4304 	subw	r3, r3, #1028	; 0x404
     aa6:	681a      	ldr	r2, [r3, #0]
     aa8:	4b76      	ldr	r3, [pc, #472]	; (c84 <__pi_release+0x1f0>)
     aaa:	429a      	cmp	r2, r3
     aac:	d127      	bne.n	afe <__pi_release+0x6a>
SysCtrlAonSync(void)
{
    //
    // Sync the AON interface
    //
    HWREG(AON_RTC_BASE + AON_RTC_O_SYNC);
     aae:	4e76      	ldr	r6, [pc, #472]	; (c88 <__pi_release+0x1f4>)

#ifdef	MONITOR_PIN_SCHED
	_PVS (MONITOR_PIN_SCHED, 1);
#endif
	// Catch up with time
	update_n_wake (MAX_WORD, NO);
     ab0:	2100      	movs	r1, #0
     ab2:	f64f 70ff 	movw	r0, #65535	; 0xffff
     ab6:	f000 f9bb 	bl	e30 <update_n_wake>

	// Run the first ready process
	for_all_tasks (__pi_curr) {
     aba:	4a74      	ldr	r2, [pc, #464]	; (c8c <__pi_release+0x1f8>)
     abc:	4b74      	ldr	r3, [pc, #464]	; (c90 <__pi_release+0x1fc>)
     abe:	6812      	ldr	r2, [r2, #0]
     ac0:	601a      	str	r2, [r3, #0]
     ac2:	681a      	ldr	r2, [r3, #0]
     ac4:	b9fa      	cbnz	r2, b06 <__pi_release+0x72>
			HWREG (NVIC_SYS_CTRL) |= NVIC_SYS_CTRL_SLEEPDEEP;
     ac6:	4c73      	ldr	r4, [pc, #460]	; (c94 <__pi_release+0x200>)
  __ASM volatile ("cpsid i" : : : "memory");
     ac8:	b672      	cpsid	i
	entropy++;
#endif

#else	/* NOT SPIN_WHEN_HALTED */

	__SLEEP;
     aca:	4d73      	ldr	r5, [pc, #460]	; (c98 <__pi_release+0x204>)
     acc:	782b      	ldrb	r3, [r5, #0]
     ace:	f3c3 0240 	ubfx	r2, r3, #1, #1
     ad2:	0798      	lsls	r0, r3, #30
     ad4:	607a      	str	r2, [r7, #4]
     ad6:	f100 80cd 	bmi.w	c74 <__pi_release+0x1e0>
	system_event_count ++;
     ada:	4a70      	ldr	r2, [pc, #448]	; (c9c <__pi_release+0x208>)
     adc:	6813      	ldr	r3, [r2, #0]
     ade:	3301      	adds	r3, #1
     ae0:	6013      	str	r3, [r2, #0]
	switch (__pi_systat.effpdm) {
     ae2:	78ea      	ldrb	r2, [r5, #3]
     ae4:	2a01      	cmp	r2, #1
     ae6:	b2d3      	uxtb	r3, r2
     ae8:	d017      	beq.n	b1a <__pi_release+0x86>
     aea:	2b02      	cmp	r3, #2
     aec:	d031      	beq.n	b52 <__pi_release+0xbe>
     aee:	2b00      	cmp	r3, #0
     af0:	f040 8095 	bne.w	c1e <__pi_release+0x18a>
			__WFI ();
     af4:	bf30      	wfi
  __ASM volatile ("cpsie i" : : : "memory");
     af6:	b662      	cpsie	i
     af8:	bf00      	nop
     afa:	bf00      	nop
     afc:	e7e4      	b.n	ac8 <__pi_release+0x34>
	check_stack_overflow;
     afe:	200b      	movs	r0, #11
     b00:	4967      	ldr	r1, [pc, #412]	; (ca0 <__pi_release+0x20c>)
     b02:	f7ff fc1b 	bl	33c <__pi_syserror>
		if (__pi_curr->code != NULL && !waiting (__pi_curr)) {
     b06:	6851      	ldr	r1, [r2, #4]
     b08:	b129      	cbz	r1, b16 <__pi_release+0x82>
     b0a:	8810      	ldrh	r0, [r2, #0]
     b0c:	0704      	lsls	r4, r0, #28
     b0e:	d102      	bne.n	b16 <__pi_release+0x82>
			(__pi_curr->code) (tstate (__pi_curr));
     b10:	0900      	lsrs	r0, r0, #4
     b12:	4788      	blx	r1
			goto Redo;
     b14:	e7cc      	b.n	ab0 <__pi_release+0x1c>
	for_all_tasks (__pi_curr) {
     b16:	6ad2      	ldr	r2, [r2, #44]	; 0x2c
     b18:	e7d2      	b.n	ac0 <__pi_release+0x2c>
			HWREG (PRCM_BASE + PRCM_O_PDCTL1VIMS) |=
     b1a:	4a62      	ldr	r2, [pc, #392]	; (ca4 <__pi_release+0x210>)
			PRCMPowerDomainOff (PRCM_DOMAIN_CPU);
     b1c:	2020      	movs	r0, #32
			HWREG (PRCM_BASE + PRCM_O_PDCTL1VIMS) |=
     b1e:	6813      	ldr	r3, [r2, #0]
     b20:	f043 0301 	orr.w	r3, r3, #1
     b24:	6013      	str	r3, [r2, #0]
//
//*****************************************************************************
__STATIC_INLINE void
PRCMCacheRetentionEnable( void )
{
   HWREG( PRCM_BASE + PRCM_O_RAMRETEN ) |= PRCM_RAMRETEN_VIMS_M;
     b26:	f8d2 3098 	ldr.w	r3, [r2, #152]	; 0x98
     b2a:	f043 0303 	orr.w	r3, r3, #3
     b2e:	f8c2 3098 	str.w	r3, [r2, #152]	; 0x98
			PRCMPowerDomainOff (PRCM_DOMAIN_CPU);
     b32:	4b5d      	ldr	r3, [pc, #372]	; (ca8 <__pi_release+0x214>)
     b34:	681b      	ldr	r3, [r3, #0]
     b36:	699b      	ldr	r3, [r3, #24]
     b38:	4798      	blx	r3
     b3a:	6833      	ldr	r3, [r6, #0]
			HWREG (NVIC_SYS_CTRL) |= NVIC_SYS_CTRL_SLEEPDEEP;
     b3c:	6823      	ldr	r3, [r4, #0]
     b3e:	f043 0304 	orr.w	r3, r3, #4
     b42:	6023      	str	r3, [r4, #0]
			__WFI ();
     b44:	bf30      	wfi
			HWREG (NVIC_SYS_CTRL) &= ~(NVIC_SYS_CTRL_SLEEPDEEP);
     b46:	6823      	ldr	r3, [r4, #0]
     b48:	f023 0304 	bic.w	r3, r3, #4
     b4c:	6023      	str	r3, [r4, #0]
     b4e:	6833      	ldr	r3, [r6, #0]
}
     b50:	e7d1      	b.n	af6 <__pi_release+0x62>
    HWREG(PRCM_NONBUF_BASE + PRCM_O_CLKLOADCTL) = PRCM_CLKLOADCTL_LOAD;
     b52:	f04f 0801 	mov.w	r8, #1
    HWREG(AON_IOC_BASE + AON_IOC_O_IOCLATCH) = 0x0;
     b56:	687a      	ldr	r2, [r7, #4]
     b58:	4b54      	ldr	r3, [pc, #336]	; (cac <__pi_release+0x218>)
    // Check the arguments.
    ASSERT((ui32Mode == AONWUC_AUX_WAKEUP) ||
           (ui32Mode == AONWUC_AUX_ALLOW_SLEEP));

    // Wake up the AUX domain.
    HWREGBITW(AON_WUC_BASE + AON_WUC_O_AUXCTL, AON_WUC_AUXCTL_AUX_FORCE_ON_BITN) = ui32Mode;
     b5a:	f8df b188 	ldr.w	fp, [pc, #392]	; ce4 <__pi_release+0x250>
     b5e:	601a      	str	r2, [r3, #0]
     b60:	687b      	ldr	r3, [r7, #4]
			PRCMPowerDomainOff (__pi_systat.ondmns |
     b62:	f8df a144 	ldr.w	sl, [pc, #324]	; ca8 <__pi_release+0x214>
     b66:	f8cb 3000 	str.w	r3, [fp]
    HWREG(AON_RTC_BASE + AON_RTC_O_SYNC);
     b6a:	6833      	ldr	r3, [r6, #0]
     b6c:	4b50      	ldr	r3, [pc, #320]	; (cb0 <__pi_release+0x21c>)
//
//*****************************************************************************
__STATIC_INLINE void
PRCMCacheRetentionDisable( void )
{
   HWREG( PRCM_BASE + PRCM_O_RAMRETEN ) &= ~PRCM_RAMRETEN_VIMS_M;
     b6e:	f8df 9178 	ldr.w	r9, [pc, #376]	; ce8 <__pi_release+0x254>
    HWREG(PRCM_NONBUF_BASE + PRCM_O_CLKLOADCTL) = PRCM_CLKLOADCTL_LOAD;
     b72:	f8c3 8000 	str.w	r8, [r3]
     b76:	6868      	ldr	r0, [r5, #4]
     b78:	f8da 3000 	ldr.w	r3, [sl]
     b7c:	f040 0020 	orr.w	r0, r0, #32
     b80:	699b      	ldr	r3, [r3, #24]
     b82:	4798      	blx	r3
    HWREGBITW(PRCM_BASE + PRCM_O_VDCTL, PRCM_VDCTL_ULDO_BITN) = ui32Enable;
     b84:	4b4b      	ldr	r3, [pc, #300]	; (cb4 <__pi_release+0x220>)
			VIMSModeSet (VIMS_BASE, VIMS_MODE_OFF);
     b86:	2103      	movs	r1, #3
     b88:	f8c3 8000 	str.w	r8, [r3]
   HWREG( PRCM_BASE + PRCM_O_RAMRETEN ) &= ~PRCM_RAMRETEN_VIMS_M;
     b8c:	f8d9 3000 	ldr.w	r3, [r9]
     b90:	4849      	ldr	r0, [pc, #292]	; (cb8 <__pi_release+0x224>)
     b92:	f023 0303 	bic.w	r3, r3, #3
     b96:	f8c9 3000 	str.w	r3, [r9]
     b9a:	4b48      	ldr	r3, [pc, #288]	; (cbc <__pi_release+0x228>)
     b9c:	681a      	ldr	r2, [r3, #0]
     b9e:	6852      	ldr	r2, [r2, #4]
     ba0:	4790      	blx	r2
			SysCtrlSetRechargeBeforePowerDown
     ba2:	6878      	ldr	r0, [r7, #4]
     ba4:	f001 fd46 	bl	2634 <NOROM_SysCtrlSetRechargeBeforePowerDown>
     ba8:	6832      	ldr	r2, [r6, #0]
			HWREG (NVIC_SYS_CTRL) |= NVIC_SYS_CTRL_SLEEPDEEP;
     baa:	6822      	ldr	r2, [r4, #0]
     bac:	f042 0204 	orr.w	r2, r2, #4
     bb0:	6022      	str	r2, [r4, #0]
			__WFI ();
     bb2:	bf30      	wfi
			HWREG (NVIC_SYS_CTRL) &= ~(NVIC_SYS_CTRL_SLEEPDEEP);
     bb4:	6822      	ldr	r2, [r4, #0]
			VIMSModeSet (VIMS_BASE, VIMS_MODE_ENABLED);
     bb6:	4b41      	ldr	r3, [pc, #260]	; (cbc <__pi_release+0x228>)
			HWREG (NVIC_SYS_CTRL) &= ~(NVIC_SYS_CTRL_SLEEPDEEP);
     bb8:	f022 0204 	bic.w	r2, r2, #4
     bbc:	6022      	str	r2, [r4, #0]
			VIMSModeSet (VIMS_BASE, VIMS_MODE_ENABLED);
     bbe:	681b      	ldr	r3, [r3, #0]
     bc0:	4641      	mov	r1, r8
     bc2:	685b      	ldr	r3, [r3, #4]
     bc4:	483c      	ldr	r0, [pc, #240]	; (cb8 <__pi_release+0x224>)
     bc6:	4798      	blx	r3
   HWREG( PRCM_BASE + PRCM_O_RAMRETEN ) |= PRCM_RAMRETEN_VIMS_M;
     bc8:	f8d9 3000 	ldr.w	r3, [r9]
AONWUCPowerStatusGet(void)
{
    //
    // Return the power status.
    //
    return (HWREG(AON_WUC_BASE + AON_WUC_O_PWRSTAT));
     bcc:	4a3c      	ldr	r2, [pc, #240]	; (cc0 <__pi_release+0x22c>)
     bce:	f043 0303 	orr.w	r3, r3, #3
     bd2:	f8c9 3000 	str.w	r3, [r9]
    HWREGBITW(AON_WUC_BASE + AON_WUC_O_AUXCTL, AON_WUC_AUXCTL_AUX_FORCE_ON_BITN) = ui32Mode;
     bd6:	f8cb 8000 	str.w	r8, [fp]
    return (HWREG(AON_WUC_BASE + AON_WUC_O_PWRSTAT));
     bda:	6813      	ldr	r3, [r2, #0]
			while (!(AONWUCPowerStatusGet () &
     bdc:	0699      	lsls	r1, r3, #26
     bde:	d5fc      	bpl.n	bda <__pi_release+0x146>
			PRCMPowerDomainOn (__pi_systat.ondmns);
     be0:	f8da 3000 	ldr.w	r3, [sl]
     be4:	6868      	ldr	r0, [r5, #4]
     be6:	695b      	ldr	r3, [r3, #20]
     be8:	4798      	blx	r3
			while (PRCMPowerDomainStatus (__pi_systat.ondmns) !=
     bea:	4d2f      	ldr	r5, [pc, #188]	; (ca8 <__pi_release+0x214>)
     bec:	4b2a      	ldr	r3, [pc, #168]	; (c98 <__pi_release+0x204>)
     bee:	6858      	ldr	r0, [r3, #4]
     bf0:	682b      	ldr	r3, [r5, #0]
     bf2:	6b5b      	ldr	r3, [r3, #52]	; 0x34
     bf4:	4798      	blx	r3
     bf6:	2801      	cmp	r0, #1
     bf8:	d1f8      	bne.n	bec <__pi_release+0x158>
    HWREG(PRCM_NONBUF_BASE + PRCM_O_CLKLOADCTL) = PRCM_CLKLOADCTL_LOAD;
     bfa:	4b2d      	ldr	r3, [pc, #180]	; (cb0 <__pi_release+0x21c>)
    HWREGBITW(PRCM_BASE + PRCM_O_VDCTL, PRCM_VDCTL_ULDO_BITN) = ui32Enable;
     bfc:	4a2d      	ldr	r2, [pc, #180]	; (cb4 <__pi_release+0x220>)
    HWREG(PRCM_NONBUF_BASE + PRCM_O_CLKLOADCTL) = PRCM_CLKLOADCTL_LOAD;
     bfe:	6018      	str	r0, [r3, #0]
    HWREGBITW(PRCM_BASE + PRCM_O_VDCTL, PRCM_VDCTL_ULDO_BITN) = ui32Enable;
     c00:	2300      	movs	r3, #0
     c02:	6013      	str	r3, [r2, #0]
    HWREG(AON_IOC_BASE + AON_IOC_O_IOCLATCH) = AON_IOC_IOCLATCH_EN;
     c04:	4b29      	ldr	r3, [pc, #164]	; (cac <__pi_release+0x218>)
     c06:	6018      	str	r0, [r3, #0]
     c08:	6833      	ldr	r3, [r6, #0]
			SysCtrlAdjustRechargeAfterPowerDown ();
     c0a:	f001 fe23 	bl	2854 <NOROM_SysCtrlAdjustRechargeAfterPowerDown>
			reinit_uart ();
     c0e:	f7ff fccf 	bl	5b0 <reinit_uart>
     c12:	4a2c      	ldr	r2, [pc, #176]	; (cc4 <__pi_release+0x230>)
     c14:	6813      	ldr	r3, [r2, #0]
     c16:	f043 0370 	orr.w	r3, r3, #112	; 0x70
     c1a:	6013      	str	r3, [r2, #0]
}
     c1c:	e76b      	b.n	af6 <__pi_release+0x62>
			AUXWUCPowerCtrl (AUX_WUC_POWER_OFF);
     c1e:	4b2a      	ldr	r3, [pc, #168]	; (cc8 <__pi_release+0x234>)
     c20:	2001      	movs	r0, #1
     c22:	681b      	ldr	r3, [r3, #0]
     c24:	68db      	ldr	r3, [r3, #12]
     c26:	4798      	blx	r3
			HWREG (AON_WUC_BASE + AON_WUC_O_AUXCTL) &=
     c28:	4a28      	ldr	r2, [pc, #160]	; (ccc <__pi_release+0x238>)
			HWREG (AON_EVENT_BASE + AON_EVENT_O_MCUWUSEL) =
     c2a:	4929      	ldr	r1, [pc, #164]	; (cd0 <__pi_release+0x23c>)
			HWREG (AON_WUC_BASE + AON_WUC_O_AUXCTL) &=
     c2c:	6813      	ldr	r3, [r2, #0]
     c2e:	f023 0301 	bic.w	r3, r3, #1
     c32:	6013      	str	r3, [r2, #0]
			HWREG (AON_WUC_BASE + AON_WUC_O_JTAGCFG) &=
     c34:	4b27      	ldr	r3, [pc, #156]	; (cd4 <__pi_release+0x240>)
     c36:	681a      	ldr	r2, [r3, #0]
     c38:	f422 7280 	bic.w	r2, r2, #256	; 0x100
     c3c:	601a      	str	r2, [r3, #0]
			HWREG (AON_EVENT_BASE + AON_EVENT_O_MCUWUSEL) =
     c3e:	f04f 323f 	mov.w	r2, #1061109567	; 0x3f3f3f3f
     c42:	600a      	str	r2, [r1, #0]
			HWREG (AON_EVENT_BASE + AON_EVENT_O_AUXWUSEL) =
     c44:	604a      	str	r2, [r1, #4]
     c46:	6832      	ldr	r2, [r6, #0]
__STATIC_INLINE void
AONWUCShutDownEnable(void)
{
    // Ensure the JTAG domain is turned off;
    // otherwise MCU domain can't be turned off.
    HWREG(AON_WUC_BASE + AON_WUC_O_JTAGCFG) = 0;
     c48:	687a      	ldr	r2, [r7, #4]
     c4a:	601a      	str	r2, [r3, #0]

    // Enable shutdown of the device.
    HWREGBITW(AON_WUC_BASE + AON_WUC_O_CTL0, AON_WUC_CTL0_PWR_DWN_DIS_BITN) = 0;
     c4c:	687a      	ldr	r2, [r7, #4]
     c4e:	4b22      	ldr	r3, [pc, #136]	; (cd8 <__pi_release+0x244>)
     c50:	601a      	str	r2, [r3, #0]
    HWREG(AON_WUC_BASE + AON_WUC_O_SHUTDOWN) = AON_WUC_SHUTDOWN_EN;
     c52:	2201      	movs	r2, #1
     c54:	4b21      	ldr	r3, [pc, #132]	; (cdc <__pi_release+0x248>)
     c56:	601a      	str	r2, [r3, #0]
     c58:	6833      	ldr	r3, [r6, #0]
    return (HWREG(AON_WUC_BASE + AON_WUC_O_PWRSTAT));
     c5a:	4a19      	ldr	r2, [pc, #100]	; (cc0 <__pi_release+0x22c>)
     c5c:	6813      	ldr	r3, [r2, #0]
			while (AONWUCPowerStatusGet () & AONWUC_AUX_POWER_ON);
     c5e:	069b      	lsls	r3, r3, #26
     c60:	d4fc      	bmi.n	c5c <__pi_release+0x1c8>
    HWREGBITW(PRCM_BASE + PRCM_O_VDCTL, PRCM_VDCTL_MCU_VD_BITN) = 1;
     c62:	2201      	movs	r2, #1
     c64:	4b1e      	ldr	r3, [pc, #120]	; (ce0 <__pi_release+0x24c>)
			PRCMPowerDomainOff (
     c66:	2037      	movs	r0, #55	; 0x37
     c68:	601a      	str	r2, [r3, #0]
     c6a:	4b0f      	ldr	r3, [pc, #60]	; (ca8 <__pi_release+0x214>)
     c6c:	681b      	ldr	r3, [r3, #0]
     c6e:	699b      	ldr	r3, [r3, #24]
     c70:	4798      	blx	r3
			goto DeepSleep;
     c72:	e763      	b.n	b3c <__pi_release+0xa8>
	__SLEEP;
     c74:	782b      	ldrb	r3, [r5, #0]
     c76:	f36f 0341 	bfc	r3, #1, #1
     c7a:	702b      	strb	r3, [r5, #0]
     c7c:	b662      	cpsie	i

#endif	/* SPIN_WHEN_HALTED */

	goto Redo;
     c7e:	e717      	b.n	ab0 <__pi_release+0x1c>
     c80:	20005000 	andcs	r5, r0, r0
     c84:	a778b779 			; <UNDEFINED> instruction: 0xa778b779
     c88:	4009202c 	andmi	r2, r9, ip, lsr #32
     c8c:	2000001c 	andcs	r0, r0, ip, lsl r0
     c90:	200000b8 	strhcs	r0, [r0], -r8
     c94:	e000ed10 	and	lr, r0, r0, lsl sp
     c98:	2000009c 	mulcs	r0, ip, r0
     c9c:	20000090 	mulcs	r0, r0, r0
     ca0:	00002bfe 	strdeq	r2, [r0], -lr
     ca4:	4008218c 	andmi	r2, r8, ip, lsl #3
     ca8:	100001b8 			; <UNDEFINED> instruction: 0x100001b8
     cac:	4009400c 	andmi	r4, r9, ip
     cb0:	60082028 	andvs	r2, r8, r8, lsr #32
     cb4:	43040180 	movwmi	r0, #16768	; 0x4180
     cb8:	40034000 	andmi	r4, r3, r0
     cbc:	100001d8 	ldrdne	r0, [r0], -r8
     cc0:	40091014 	andmi	r1, r9, r4, lsl r0
     cc4:	40001038 	andmi	r1, r0, r8, lsr r0
     cc8:	100001a0 	andne	r0, r0, r0, lsr #3
     ccc:	40091010 	andmi	r1, r9, r0, lsl r0
     cd0:	40093000 	andmi	r3, r9, r0
     cd4:	40091040 	andmi	r1, r9, r0, asr #32
     cd8:	43220420 			; <UNDEFINED> instruction: 0x43220420
     cdc:	40091018 	andmi	r1, r9, r8, lsl r0
     ce0:	43040188 	movwmi	r0, #16776	; 0x4188
     ce4:	43220200 			; <UNDEFINED> instruction: 0x43220200
     ce8:	40082224 	andmi	r2, r8, r4, lsr #4

00000cec <main>:

#include "scheduler.h"

}

int main (void) {
     cec:	b510      	push	{r4, lr}
     cee:	4b11      	ldr	r3, [pc, #68]	; (d34 <main+0x48>)

#if	STACK_GUARD
	{
		register sint i;
		for (i = 0; i < (STACK_SIZE / sizeof (lword)) - 16; i++)
			*((((lword*)STACK_END) - 1) + i) = STACK_SENTINEL;
     cf0:	4911      	ldr	r1, [pc, #68]	; (d38 <main+0x4c>)
		for (i = 0; i < (STACK_SIZE / sizeof (lword)) - 16; i++)
     cf2:	4a12      	ldr	r2, [pc, #72]	; (d3c <main+0x50>)
			*((((lword*)STACK_END) - 1) + i) = STACK_SENTINEL;
     cf4:	f843 1b04 	str.w	r1, [r3], #4
		for (i = 0; i < (STACK_SIZE / sizeof (lword)) - 16; i++)
     cf8:	4293      	cmp	r3, r2
     cfa:	d1fb      	bne.n	cf4 <main+0x8>
#if	TCV_PRESENT
	tcv_init ();
#endif

	// For standby mode wakeup on timer
	AONEventMcuWakeUpSet (AON_EVENT_MCU_EVENT0, AON_EVENT_RTC_COMB_DLY);
     cfc:	4c10      	ldr	r4, [pc, #64]	; (d40 <main+0x54>)
	system_init ();
     cfe:	f7ff fded 	bl	8dc <system_init>
	tcv_init ();
     d02:	f000 fb77 	bl	13f4 <tcv_init>
	AONEventMcuWakeUpSet (AON_EVENT_MCU_EVENT0, AON_EVENT_RTC_COMB_DLY);
     d06:	6823      	ldr	r3, [r4, #0]
     d08:	2129      	movs	r1, #41	; 0x29
     d0a:	2000      	movs	r0, #0
     d0c:	681b      	ldr	r3, [r3, #0]
     d0e:	4798      	blx	r3
	// Edge on any I/O, will it take care of UART? No, of course not!
	// But it does work for buttons.
	AONEventMcuWakeUpSet (AON_EVENT_MCU_EVENT1, AON_EVENT_IO);
     d10:	6823      	ldr	r3, [r4, #0]
     d12:	2120      	movs	r1, #32
     d14:	681b      	ldr	r3, [r3, #0]
     d16:	2001      	movs	r0, #1
     d18:	4798      	blx	r3

	// Assume root process identity
	__pi_curr = (__pi_pcb_t*) fork (root, 0);
     d1a:	2100      	movs	r1, #0
     d1c:	4809      	ldr	r0, [pc, #36]	; (d44 <main+0x58>)
     d1e:	f000 faa5 	bl	126c <__pi_fork>
     d22:	4b09      	ldr	r3, [pc, #36]	; (d48 <main+0x5c>)
	// Delay root startup for 16 msec to make sure that the drivers go
	// first
	delay (16, 0);
     d24:	2100      	movs	r1, #0
	__pi_curr = (__pi_pcb_t*) fork (root, 0);
     d26:	6018      	str	r0, [r3, #0]
	delay (16, 0);
     d28:	2010      	movs	r0, #16
     d2a:	f000 f937 	bl	f9c <delay>
     d2e:	b662      	cpsie	i

	sti;

	__pi_release ();
     d30:	f7ff feb0 	bl	a94 <__pi_release>
     d34:	20004bfc 	strdcs	r4, [r0], -ip
     d38:	a778b779 			; <UNDEFINED> instruction: 0xa778b779
     d3c:	20004fbc 			; <UNDEFINED> instruction: 0x20004fbc
     d40:	10000184 	andne	r0, r0, r4, lsl #3
     d44:	00000171 	andeq	r0, r0, r1, ror r1
     d48:	200000b8 	strhcs	r0, [r0], -r8

00000d4c <killev>:
	}

	return i->Timer - __pi_old;
}

static void killev (__pi_pcb_t *pid) {
     d4c:	b570      	push	{r4, r5, r6, lr}
	aword wfun;
	int j;
	__pi_pcb_t *i;

	wfun = (aword)(pid->code);
	for_all_tasks (i) {
     d4e:	4b0d      	ldr	r3, [pc, #52]	; (d84 <killev+0x38>)
	wfun = (aword)(pid->code);
     d50:	6846      	ldr	r6, [r0, #4]
	for_all_tasks (i) {
     d52:	681a      	ldr	r2, [r3, #0]
     d54:	b1aa      	cbz	r2, d82 <killev+0x36>
		for (j = 0; j < nevents (i); j++) {
     d56:	4614      	mov	r4, r2
     d58:	f834 1b10 	ldrh.w	r1, [r4], #16
     d5c:	2300      	movs	r3, #0
     d5e:	f001 0107 	and.w	r1, r1, #7
     d62:	e001      	b.n	d68 <killev+0x1c>
			if (i->Events [j] . Event == (aword)pid
			    || i->Events [j] . Event == wfun
     d64:	42b5      	cmp	r5, r6
     d66:	d006      	beq.n	d76 <killev+0x2a>
		for (j = 0; j < nevents (i); j++) {
     d68:	4299      	cmp	r1, r3
     d6a:	dd08      	ble.n	d7e <killev+0x32>
			if (i->Events [j] . Event == (aword)pid
     d6c:	f854 5033 	ldr.w	r5, [r4, r3, lsl #3]
     d70:	3301      	adds	r3, #1
     d72:	42a8      	cmp	r0, r5
     d74:	d1f6      	bne.n	d64 <killev+0x18>
			    ) {
				wakeupev (i, j);
     d76:	eb02 03c3 	add.w	r3, r2, r3, lsl #3
     d7a:	889b      	ldrh	r3, [r3, #4]
     d7c:	8013      	strh	r3, [r2, #0]
	for_all_tasks (i) {
     d7e:	6ad2      	ldr	r2, [r2, #44]	; 0x2c
     d80:	e7e8      	b.n	d54 <killev+0x8>
				break;
			}
		}
	}
}
     d82:	bd70      	pop	{r4, r5, r6, pc}
     d84:	2000001c 	andcs	r0, r0, ip, lsl r0

00000d88 <qfree>:
	// volatile
#endif
	aword *chunk, *cc;

	cc = (aword*)(mpools + MA_NP);
	for (chunk = mpools [MA_NP]; chunk != NULL; chunk = m_nextp (chunk)) {
     d88:	4a1d      	ldr	r2, [pc, #116]	; (e00 <qfree+0x78>)
static void qfree (aword *ch) {
     d8a:	b530      	push	{r4, r5, lr}
     d8c:	4614      	mov	r4, r2
	for (chunk = mpools [MA_NP]; chunk != NULL; chunk = m_nextp (chunk)) {
     d8e:	6813      	ldr	r3, [r2, #0]
     d90:	b93b      	cbnz	r3, da2 <qfree+0x1a>
		}
	}

	/* Insert */
	cc = (aword*)(mpools + MA_NP);
	for (chunk = mpools [MA_NP]; chunk != NULL; cc = chunk,
     d92:	6823      	ldr	r3, [r4, #0]
	cc = (aword*)(mpools + MA_NP);
     d94:	4a1a      	ldr	r2, [pc, #104]	; (e00 <qfree+0x78>)
	for (chunk = mpools [MA_NP]; chunk != NULL; cc = chunk,
     d96:	bb53      	cbnz	r3, dee <qfree+0x66>
		chunk = m_nextp (chunk))
			if (m_size (chunk) >= m_size (ch))
				break;

	m_setnextp (ch, chunk);
     d98:	6003      	str	r3, [r0, #0]
	m_setnextp (cc, ch);

#if	MALLOC_SAFE
	m_magic (ch) = MALLOC_MAGIC;
     d9a:	4b1a      	ldr	r3, [pc, #104]	; (e04 <qfree+0x7c>)
	m_setnextp (cc, ch);
     d9c:	6010      	str	r0, [r2, #0]
	m_magic (ch) = MALLOC_MAGIC;
     d9e:	6043      	str	r3, [r0, #4]
#endif

#undef	MA_NP
}
     da0:	bd30      	pop	{r4, r5, pc}
		if (chunk + m_size (chunk) + m_hdrlen == ch) {
     da2:	e953 1501 	ldrd	r1, r5, [r3, #-4]
     da6:	3101      	adds	r1, #1
     da8:	eb03 0181 	add.w	r1, r3, r1, lsl #2
     dac:	4288      	cmp	r0, r1
     dae:	d10b      	bne.n	dc8 <qfree+0x40>
			m_setnextp (cc, m_nextp (chunk));
     db0:	6015      	str	r5, [r2, #0]
			m_size (chunk) += m_hdrlen + m_size (ch);
     db2:	f850 0c04 	ldr.w	r0, [r0, #-4]
     db6:	f853 1c04 	ldr.w	r1, [r3, #-4]
     dba:	4401      	add	r1, r0
     dbc:	4618      	mov	r0, r3
     dbe:	3101      	adds	r1, #1
     dc0:	f843 1c04 	str.w	r1, [r3, #-4]
	for (chunk = mpools [MA_NP]; chunk != NULL; chunk = m_nextp (chunk)) {
     dc4:	681b      	ldr	r3, [r3, #0]
     dc6:	e7e3      	b.n	d90 <qfree+0x8>
		} else if (ch + m_size (ch) + m_hdrlen == chunk) {
     dc8:	f850 1c04 	ldr.w	r1, [r0, #-4]
     dcc:	3101      	adds	r1, #1
     dce:	eb00 0181 	add.w	r1, r0, r1, lsl #2
     dd2:	428b      	cmp	r3, r1
			m_setnextp (cc, m_nextp (chunk));
     dd4:	bf03      	ittte	eq
     dd6:	6015      	streq	r5, [r2, #0]
			m_size (ch) += m_hdrlen + m_size (chunk);
     dd8:	f850 1c04 	ldreq.w	r1, [r0, #-4]
     ddc:	f853 5c04 	ldreq.w	r5, [r3, #-4]
     de0:	461a      	movne	r2, r3
     de2:	bf02      	ittt	eq
     de4:	1949      	addeq	r1, r1, r5
     de6:	3101      	addeq	r1, #1
     de8:	f840 1c04 	streq.w	r1, [r0, #-4]
     dec:	e7ea      	b.n	dc4 <qfree+0x3c>
			if (m_size (chunk) >= m_size (ch))
     dee:	f853 4c04 	ldr.w	r4, [r3, #-4]
     df2:	f850 1c04 	ldr.w	r1, [r0, #-4]
     df6:	428c      	cmp	r4, r1
     df8:	d2ce      	bcs.n	d98 <qfree+0x10>
		chunk = m_nextp (chunk))
     dfa:	461a      	mov	r2, r3
     dfc:	681b      	ldr	r3, [r3, #0]
     dfe:	e7ca      	b.n	d96 <qfree+0xe>
     e00:	20000030 	andcs	r0, r0, r0, lsr r0
     e04:	deafdeaf 	cdple	14, 10, cr13, cr15, cr15, {5}

00000e08 <dgout>:
    return((HWREG(ui32Base + UART_O_FR) & UART_FR_BUSY) ?
     e08:	4a03      	ldr	r2, [pc, #12]	; (e18 <dgout+0x10>)
     e0a:	6813      	ldr	r3, [r2, #0]

#if	dbg_level != 0 || DIAG_MESSAGES

static void dgout (word c) {

	diag_wait (a);
     e0c:	071b      	lsls	r3, r3, #28
     e0e:	d4fc      	bmi.n	e0a <dgout+0x2>
	diag_wchar (c, a);
     e10:	4b02      	ldr	r3, [pc, #8]	; (e1c <dgout+0x14>)
     e12:	b2c0      	uxtb	r0, r0
     e14:	6018      	str	r0, [r3, #0]
}
     e16:	4770      	bx	lr
     e18:	40001018 	andmi	r1, r0, r8, lsl r0
     e1c:	40001000 	andmi	r1, r0, r0

00000e20 <__pi_badstate>:
	syserror (ESTATE, "state");
     e20:	2007      	movs	r0, #7
void __pi_badstate (void) {
     e22:	b508      	push	{r3, lr}
	syserror (ESTATE, "state");
     e24:	4901      	ldr	r1, [pc, #4]	; (e2c <__pi_badstate+0xc>)
     e26:	f7ff fa89 	bl	33c <__pi_syserror>
     e2a:	bf00      	nop
     e2c:	00002c48 	andeq	r2, r0, r8, asr #24

00000e30 <update_n_wake>:
void update_n_wake (word min, Boolean force) {
     e30:	b5f8      	push	{r3, r4, r5, r6, r7, lr}
     e32:	4604      	mov	r4, r0
	if (TCI_UPDATE_DELAY_TICKS (force))
     e34:	4608      	mov	r0, r1
     e36:	f7ff fb69 	bl	50c <tci_update_delay_ticks>
     e3a:	2800      	cmp	r0, #0
     e3c:	d154      	bne.n	ee8 <update_n_wake+0xb8>
	if (twakecnd (__pi_old, znew, __pi_mintk)) {
     e3e:	4b2b      	ldr	r3, [pc, #172]	; (eec <update_n_wake+0xbc>)
     e40:	4d2b      	ldr	r5, [pc, #172]	; (ef0 <update_n_wake+0xc0>)
     e42:	8819      	ldrh	r1, [r3, #0]
     e44:	882a      	ldrh	r2, [r5, #0]
     e46:	b289      	uxth	r1, r1
     e48:	428a      	cmp	r2, r1
     e4a:	492a      	ldr	r1, [pc, #168]	; (ef4 <update_n_wake+0xc4>)
     e4c:	d803      	bhi.n	e56 <update_n_wake+0x26>
     e4e:	8808      	ldrh	r0, [r1, #0]
     e50:	b280      	uxth	r0, r0
     e52:	4282      	cmp	r2, r0
     e54:	d20d      	bcs.n	e72 <update_n_wake+0x42>
     e56:	881e      	ldrh	r6, [r3, #0]
     e58:	8808      	ldrh	r0, [r1, #0]
     e5a:	b2b6      	uxth	r6, r6
     e5c:	b280      	uxth	r0, r0
     e5e:	4286      	cmp	r6, r0
     e60:	d236      	bcs.n	ed0 <update_n_wake+0xa0>
     e62:	8818      	ldrh	r0, [r3, #0]
     e64:	b280      	uxth	r0, r0
     e66:	4282      	cmp	r2, r0
     e68:	d903      	bls.n	e72 <update_n_wake+0x42>
     e6a:	8808      	ldrh	r0, [r1, #0]
     e6c:	b280      	uxth	r0, r0
     e6e:	4282      	cmp	r2, r0
     e70:	d32e      	bcc.n	ed0 <update_n_wake+0xa0>
		for_all_tasks (i) {
     e72:	4a21      	ldr	r2, [pc, #132]	; (ef8 <update_n_wake+0xc8>)
     e74:	6810      	ldr	r0, [r2, #0]
     e76:	b918      	cbnz	r0, e80 <update_n_wake+0x50>
	__pi_mintk = znew + min;
     e78:	8818      	ldrh	r0, [r3, #0]
     e7a:	4404      	add	r4, r0
     e7c:	802c      	strh	r4, [r5, #0]
     e7e:	e02c      	b.n	eda <update_n_wake+0xaa>
			if (!twaiting (i))
     e80:	8806      	ldrh	r6, [r0, #0]
     e82:	0732      	lsls	r2, r6, #28
     e84:	d51b      	bpl.n	ebe <update_n_wake+0x8e>
			if (twakecnd (__pi_old, znew, i->Timer)) {
     e86:	881f      	ldrh	r7, [r3, #0]
     e88:	8842      	ldrh	r2, [r0, #2]
     e8a:	b2bf      	uxth	r7, r7
     e8c:	42ba      	cmp	r2, r7
     e8e:	d803      	bhi.n	e98 <update_n_wake+0x68>
     e90:	880f      	ldrh	r7, [r1, #0]
     e92:	b2bf      	uxth	r7, r7
     e94:	42ba      	cmp	r2, r7
     e96:	d20f      	bcs.n	eb8 <update_n_wake+0x88>
     e98:	f8b3 c000 	ldrh.w	ip, [r3]
     e9c:	880f      	ldrh	r7, [r1, #0]
     e9e:	fa1f fc8c 	uxth.w	ip, ip
     ea2:	b2bf      	uxth	r7, r7
     ea4:	45bc      	cmp	ip, r7
     ea6:	d20c      	bcs.n	ec2 <update_n_wake+0x92>
     ea8:	881f      	ldrh	r7, [r3, #0]
     eaa:	b2bf      	uxth	r7, r7
     eac:	42ba      	cmp	r2, r7
     eae:	d903      	bls.n	eb8 <update_n_wake+0x88>
     eb0:	880f      	ldrh	r7, [r1, #0]
     eb2:	b2bf      	uxth	r7, r7
     eb4:	42ba      	cmp	r2, r7
     eb6:	d304      	bcc.n	ec2 <update_n_wake+0x92>
				wakeuptm (i);
     eb8:	f026 060f 	bic.w	r6, r6, #15
     ebc:	8006      	strh	r6, [r0, #0]
		for_all_tasks (i) {
     ebe:	6ac0      	ldr	r0, [r0, #44]	; 0x2c
     ec0:	e7d9      	b.n	e76 <update_n_wake+0x46>
				d = i->Timer - znew;
     ec2:	881e      	ldrh	r6, [r3, #0]
     ec4:	1b92      	subs	r2, r2, r6
     ec6:	b292      	uxth	r2, r2
     ec8:	4294      	cmp	r4, r2
     eca:	bf28      	it	cs
     ecc:	4614      	movcs	r4, r2
     ece:	e7f6      	b.n	ebe <update_n_wake+0x8e>
		if ((word)(__pi_mintk - znew) < min) 
     ed0:	8818      	ldrh	r0, [r3, #0]
     ed2:	1a12      	subs	r2, r2, r0
     ed4:	b292      	uxth	r2, r2
     ed6:	4294      	cmp	r4, r2
     ed8:	d9ce      	bls.n	e78 <update_n_wake+0x48>
	__pi_old = znew;
     eda:	881b      	ldrh	r3, [r3, #0]
     edc:	b29b      	uxth	r3, r3
     ede:	800b      	strh	r3, [r1, #0]
}
     ee0:	e8bd 40f8 	ldmia.w	sp!, {r3, r4, r5, r6, r7, lr}
	TCI_RUN_DELAY_TIMER;
     ee4:	f7ff ba54 	b.w	390 <tci_run_delay_timer>
}
     ee8:	bdf8      	pop	{r3, r4, r5, r6, r7, pc}
     eea:	bf00      	nop
     eec:	200000a4 	andcs	r0, r0, r4, lsr #1
     ef0:	20000098 	mulcs	r0, r8, r0
     ef4:	2000009a 	mulcs	r0, sl, r0
     ef8:	2000001c 	andcs	r0, r0, ip, lsl r0

00000efc <proceed>:
void proceed (word state) {
     efc:	b508      	push	{r3, lr}
	prcdstate (__pi_curr, state);
     efe:	4b03      	ldr	r3, [pc, #12]	; (f0c <proceed+0x10>)
     f00:	0100      	lsls	r0, r0, #4
     f02:	681b      	ldr	r3, [r3, #0]
     f04:	8018      	strh	r0, [r3, #0]
	release;
     f06:	f7ff fdc5 	bl	a94 <__pi_release>
     f0a:	bf00      	nop
     f0c:	200000b8 	strhcs	r0, [r0], -r8

00000f10 <__pi_wait>:
void __pi_wait (aword event, word state) {
     f10:	b510      	push	{r4, lr}
	sint j = nevents (__pi_curr);
     f12:	4b0a      	ldr	r3, [pc, #40]	; (f3c <__pi_wait+0x2c>)
     f14:	681c      	ldr	r4, [r3, #0]
     f16:	8823      	ldrh	r3, [r4, #0]
	if (j >= MAX_EVENTS_PER_TASK)
     f18:	f013 0f04 	tst.w	r3, #4
     f1c:	f003 0207 	and.w	r2, r3, #7
     f20:	d003      	beq.n	f2a <__pi_wait+0x1a>
		syserror (ENEVENTS, "sw");
     f22:	2005      	movs	r0, #5
     f24:	4906      	ldr	r1, [pc, #24]	; (f40 <__pi_wait+0x30>)
     f26:	f7ff fa09 	bl	33c <__pi_syserror>
	setestate (__pi_curr->Events [j], state, event);
     f2a:	eb04 02c2 	add.w	r2, r4, r2, lsl #3
     f2e:	0109      	lsls	r1, r1, #4
	incwait (__pi_curr);
     f30:	3301      	adds	r3, #1
	setestate (__pi_curr->Events [j], state, event);
     f32:	8191      	strh	r1, [r2, #12]
     f34:	6110      	str	r0, [r2, #16]
	incwait (__pi_curr);
     f36:	8023      	strh	r3, [r4, #0]
}
     f38:	bd10      	pop	{r4, pc}
     f3a:	bf00      	nop
     f3c:	200000b8 	strhcs	r0, [r0], -r8
     f40:	00002c4e 	andeq	r2, r0, lr, asr #24

00000f44 <__pi_trigger>:
void __pi_trigger (aword event) {
     f44:	b530      	push	{r4, r5, lr}
	for_all_tasks (i) {
     f46:	4b0b      	ldr	r3, [pc, #44]	; (f74 <__pi_trigger+0x30>)
     f48:	681a      	ldr	r2, [r3, #0]
     f4a:	b192      	cbz	r2, f72 <__pi_trigger+0x2e>
		for (j = 0; j < nevents (i); j++) {
     f4c:	4614      	mov	r4, r2
     f4e:	2300      	movs	r3, #0
     f50:	f834 1b10 	ldrh.w	r1, [r4], #16
     f54:	f001 0107 	and.w	r1, r1, #7
     f58:	4299      	cmp	r1, r3
     f5a:	dd08      	ble.n	f6e <__pi_trigger+0x2a>
			if (i->Events [j] . Event == event) {
     f5c:	f854 5033 	ldr.w	r5, [r4, r3, lsl #3]
     f60:	3301      	adds	r3, #1
     f62:	4285      	cmp	r5, r0
     f64:	d1f8      	bne.n	f58 <__pi_trigger+0x14>
				wakeupev (i, j);
     f66:	eb02 03c3 	add.w	r3, r2, r3, lsl #3
     f6a:	889b      	ldrh	r3, [r3, #4]
     f6c:	8013      	strh	r3, [r2, #0]
	for_all_tasks (i) {
     f6e:	6ad2      	ldr	r2, [r2, #44]	; 0x2c
     f70:	e7eb      	b.n	f4a <__pi_trigger+0x6>
}
     f72:	bd30      	pop	{r4, r5, pc}
     f74:	2000001c 	andcs	r0, r0, ip, lsl r0

00000f78 <__pi_join>:
aword __pi_join (aword pid, word st) {
     f78:	b510      	push	{r4, lr}
     f7a:	4604      	mov	r4, r0
	for_all_tasks (i) {
     f7c:	4b06      	ldr	r3, [pc, #24]	; (f98 <__pi_join+0x20>)
     f7e:	681b      	ldr	r3, [r3, #0]
     f80:	b90b      	cbnz	r3, f86 <__pi_join+0xe>
	return 0;
     f82:	461c      	mov	r4, r3
     f84:	e004      	b.n	f90 <__pi_join+0x18>
		if ((aword)i == pid) {
     f86:	42a3      	cmp	r3, r4
     f88:	d104      	bne.n	f94 <__pi_join+0x1c>
			__pi_wait (pid, st);
     f8a:	4620      	mov	r0, r4
     f8c:	f7ff ffc0 	bl	f10 <__pi_wait>
}
     f90:	4620      	mov	r0, r4
     f92:	bd10      	pop	{r4, pc}
	for_all_tasks (i) {
     f94:	6adb      	ldr	r3, [r3, #44]	; 0x2c
     f96:	e7f3      	b.n	f80 <__pi_join+0x8>
     f98:	2000001c 	andcs	r0, r0, ip, lsl r0

00000f9c <delay>:
void delay (word d, word state) {
     f9c:	b538      	push	{r3, r4, r5, lr}
     f9e:	4604      	mov	r4, r0
	settstate (__pi_curr, state);
     fa0:	4d0a      	ldr	r5, [pc, #40]	; (fcc <delay+0x30>)
     fa2:	682a      	ldr	r2, [r5, #0]
     fa4:	8813      	ldrh	r3, [r2, #0]
     fa6:	f003 0307 	and.w	r3, r3, #7
     faa:	ea43 1301 	orr.w	r3, r3, r1, lsl #4
     fae:	8013      	strh	r3, [r2, #0]
	update_n_wake (d, YES);
     fb0:	2101      	movs	r1, #1
     fb2:	f7ff ff3d 	bl	e30 <update_n_wake>
	__pi_curr->Timer = __pi_old + d;
     fb6:	4b06      	ldr	r3, [pc, #24]	; (fd0 <delay+0x34>)
     fb8:	8818      	ldrh	r0, [r3, #0]
     fba:	682b      	ldr	r3, [r5, #0]
     fbc:	4404      	add	r4, r0
     fbe:	805c      	strh	r4, [r3, #2]
	inctimer (__pi_curr);
     fc0:	682a      	ldr	r2, [r5, #0]
     fc2:	8813      	ldrh	r3, [r2, #0]
     fc4:	f043 0308 	orr.w	r3, r3, #8
     fc8:	8013      	strh	r3, [r2, #0]
}
     fca:	bd38      	pop	{r3, r4, r5, pc}
     fcc:	200000b8 	strhcs	r0, [r0], -r8
     fd0:	2000009a 	mulcs	r0, sl, r0

00000fd4 <running>:
	if (fun == NULL)
     fd4:	4603      	mov	r3, r0
     fd6:	b910      	cbnz	r0, fde <running+0xa>
		return (int) __pi_curr;
     fd8:	4b05      	ldr	r3, [pc, #20]	; (ff0 <running+0x1c>)
     fda:	6818      	ldr	r0, [r3, #0]
     fdc:	4770      	bx	lr
	for_all_tasks (i)
     fde:	4a05      	ldr	r2, [pc, #20]	; (ff4 <running+0x20>)
     fe0:	6810      	ldr	r0, [r2, #0]
     fe2:	b900      	cbnz	r0, fe6 <running+0x12>
}
     fe4:	4770      	bx	lr
		if (i->code == fun)
     fe6:	6842      	ldr	r2, [r0, #4]
     fe8:	429a      	cmp	r2, r3
     fea:	d0fb      	beq.n	fe4 <running+0x10>
	for_all_tasks (i)
     fec:	6ac0      	ldr	r0, [r0, #44]	; 0x2c
     fee:	e7f8      	b.n	fe2 <running+0xe>
     ff0:	200000b8 	strhcs	r0, [r0], -r8
     ff4:	2000001c 	andcs	r0, r0, ip, lsl r0

00000ff8 <__pi_strlen>:
int __pi_strlen (const char *s) {
     ff8:	4603      	mov	r3, r0
	for (i = 0; *(s+i) != '\0'; i++);
     ffa:	2000      	movs	r0, #0
     ffc:	5c1a      	ldrb	r2, [r3, r0]
     ffe:	b902      	cbnz	r2, 1002 <__pi_strlen+0xa>
}
    1000:	4770      	bx	lr
	for (i = 0; *(s+i) != '\0'; i++);
    1002:	3001      	adds	r0, #1
    1004:	e7fa      	b.n	ffc <__pi_strlen+0x4>

00001006 <__pi_memcpy>:
	while (n--)
    1006:	3801      	subs	r0, #1
    1008:	440a      	add	r2, r1
    100a:	4291      	cmp	r1, r2
    100c:	d100      	bne.n	1010 <__pi_memcpy+0xa>
}
    100e:	4770      	bx	lr
		*dest++ = *src++;
    1010:	f811 3b01 	ldrb.w	r3, [r1], #1
    1014:	f800 3f01 	strb.w	r3, [r0, #1]!
    1018:	e7f7      	b.n	100a <__pi_memcpy+0x4>
	...

0000101c <adddevfunc>:
void adddevfunc (devreqfun_t rf, int loc) {
    101c:	b508      	push	{r3, lr}
	if (loc < 0 || loc >= MAX_DEVICES)
    101e:	b119      	cbz	r1, 1028 <adddevfunc+0xc>
		syserror (EREQPAR, "addv");
    1020:	2003      	movs	r0, #3
    1022:	4905      	ldr	r1, [pc, #20]	; (1038 <adddevfunc+0x1c>)
		syserror (ERESOURCE, "addv");
    1024:	f7ff f98a 	bl	33c <__pi_syserror>
	if (ioreq [loc] != NULL)
    1028:	4b04      	ldr	r3, [pc, #16]	; (103c <adddevfunc+0x20>)
    102a:	681a      	ldr	r2, [r3, #0]
    102c:	b112      	cbz	r2, 1034 <adddevfunc+0x18>
		syserror (ERESOURCE, "addv");
    102e:	2004      	movs	r0, #4
    1030:	4901      	ldr	r1, [pc, #4]	; (1038 <adddevfunc+0x1c>)
    1032:	e7f7      	b.n	1024 <adddevfunc+0x8>
	ioreq [loc] = rf;
    1034:	6018      	str	r0, [r3, #0]
}
    1036:	bd08      	pop	{r3, pc}
    1038:	00002c51 	andeq	r2, r0, r1, asr ip
    103c:	20000020 	andcs	r0, r0, r0, lsr #32

00001040 <io>:
sint io (word retry, word dev, word operation, char *buf, word len) {
    1040:	e92d 43f8 	stmdb	sp!, {r3, r4, r5, r6, r7, r8, r9, lr}
    1044:	4604      	mov	r4, r0
    1046:	4616      	mov	r6, r2
    1048:	461d      	mov	r5, r3
    104a:	f8bd 8020 	ldrh.w	r8, [sp, #32]
	if (dev >= MAX_DEVICES || ioreq [dev] == NULL)
    104e:	b921      	cbnz	r1, 105a <io+0x1a>
    1050:	f8df 9084 	ldr.w	r9, [pc, #132]	; 10d8 <io+0x98>
    1054:	f8d9 3000 	ldr.w	r3, [r9]
    1058:	b91b      	cbnz	r3, 1062 <io+0x22>
		syserror (ENODEVICE, "io");
    105a:	2001      	movs	r0, #1
    105c:	491d      	ldr	r1, [pc, #116]	; (10d4 <io+0x94>)
    105e:	f7ff f96d 	bl	33c <__pi_syserror>
	if (len == 0)
    1062:	f1b8 0f00 	cmp.w	r8, #0
    1066:	d028      	beq.n	10ba <io+0x7a>
	ret = (ioreq [dev]) (operation, buf, len);
    1068:	4642      	mov	r2, r8
    106a:	4629      	mov	r1, r5
    106c:	4630      	mov	r0, r6
    106e:	4798      	blx	r3
	if (ret >= 0)
    1070:	2800      	cmp	r0, #0
    1072:	da23      	bge.n	10bc <io+0x7c>
	if (ret == -1) {
    1074:	1c41      	adds	r1, r0, #1
    1076:	f64f 73ff 	movw	r3, #65535	; 0xffff
    107a:	d108      	bne.n	108e <io+0x4e>
		if (retry == WNONE)
    107c:	429c      	cmp	r4, r3
    107e:	d01c      	beq.n	10ba <io+0x7a>
		iowait (dev, operation, retry);
    1080:	4621      	mov	r1, r4
    1082:	f5a6 7081 	sub.w	r0, r6, #258	; 0x102
    1086:	f7ff ff43 	bl	f10 <__pi_wait>
			release;
    108a:	f7ff fd03 	bl	a94 <__pi_release>
	if (ret == -2) {
    108e:	1c82      	adds	r2, r0, #2
    1090:	d116      	bne.n	10c0 <io+0x80>
		if (retry != WNONE) {
    1092:	429c      	cmp	r4, r3
    1094:	f8d9 9000 	ldr.w	r9, [r9]
    1098:	d00a      	beq.n	10b0 <io+0x70>
			iowait (dev, operation, retry);
    109a:	4621      	mov	r1, r4
    109c:	f5a6 7081 	sub.w	r0, r6, #258	; 0x102
    10a0:	f7ff ff36 	bl	f10 <__pi_wait>
			(ioreq [dev]) (NONE, buf, len);
    10a4:	4642      	mov	r2, r8
    10a6:	4629      	mov	r1, r5
    10a8:	f04f 30ff 	mov.w	r0, #4294967295	; 0xffffffff
    10ac:	47c8      	blx	r9
    10ae:	e7ec      	b.n	108a <io+0x4a>
		(ioreq [dev]) (NONE, buf, len);
    10b0:	4642      	mov	r2, r8
    10b2:	4629      	mov	r1, r5
    10b4:	f04f 30ff 	mov.w	r0, #4294967295	; 0xffffffff
    10b8:	47c8      	blx	r9
		return 0;
    10ba:	2000      	movs	r0, #0
}
    10bc:	e8bd 83f8 	ldmia.w	sp!, {r3, r4, r5, r6, r7, r8, r9, pc}
	if (retry != WNONE) {
    10c0:	429c      	cmp	r4, r3
    10c2:	d0fa      	beq.n	10ba <io+0x7a>
		delay (-ret - 2, retry);
    10c4:	f5c0 407f 	rsb	r0, r0, #65280	; 0xff00
    10c8:	30fe      	adds	r0, #254	; 0xfe
    10ca:	4621      	mov	r1, r4
    10cc:	b280      	uxth	r0, r0
    10ce:	f7ff ff65 	bl	f9c <delay>
		release;
    10d2:	e7da      	b.n	108a <io+0x4a>
    10d4:	00002c56 	andeq	r2, r0, r6, asr ip
    10d8:	20000020 	andcs	r0, r0, r0, lsr #32

000010dc <__pi_malloc_init>:
	if ((mlen = (aword)MALLOC_LENGTH) < 256)
    10dc:	4a0d      	ldr	r2, [pc, #52]	; (1114 <__pi_malloc_init+0x38>)
void __pi_malloc_init () {
    10de:	b508      	push	{r3, lr}
	if ((mlen = (aword)MALLOC_LENGTH) < 256)
    10e0:	f1c2 5300 	rsb	r3, r2, #536870912	; 0x20000000
    10e4:	f503 4398 	add.w	r3, r3, #19456	; 0x4c00
    10e8:	089b      	lsrs	r3, r3, #2
    10ea:	1e59      	subs	r1, r3, #1
    10ec:	29ff      	cmp	r1, #255	; 0xff
    10ee:	d803      	bhi.n	10f8 <__pi_malloc_init+0x1c>
		syserror (ERESOURCE, "mal1");
    10f0:	2004      	movs	r0, #4
    10f2:	4909      	ldr	r1, [pc, #36]	; (1118 <__pi_malloc_init+0x3c>)
    10f4:	f7ff f922 	bl	33c <__pi_syserror>
	mpools [0] = ((aword*)MALLOC_START) + m_hdrlen;
    10f8:	4908      	ldr	r1, [pc, #32]	; (111c <__pi_malloc_init+0x40>)
    10fa:	1d10      	adds	r0, r2, #4
    10fc:	6008      	str	r0, [r1, #0]
	m_magic (mpools [0]) = MALLOC_MAGIC;
    10fe:	2000      	movs	r0, #0
    1100:	4907      	ldr	r1, [pc, #28]	; (1120 <__pi_malloc_init+0x44>)
	m_size (mpools [0]) = mlen - m_hdrlen;
    1102:	3b02      	subs	r3, #2
    1104:	6013      	str	r3, [r2, #0]
	m_magic (mpools [0]) = MALLOC_MAGIC;
    1106:	e9c2 0101 	strd	r0, r1, [r2, #4]
	mnfree [0] = mcfree [0] = m_size (mpools [0]);
    110a:	4a06      	ldr	r2, [pc, #24]	; (1124 <__pi_malloc_init+0x48>)
    110c:	6013      	str	r3, [r2, #0]
    110e:	4a06      	ldr	r2, [pc, #24]	; (1128 <__pi_malloc_init+0x4c>)
    1110:	6013      	str	r3, [r2, #0]
}
    1112:	bd08      	pop	{r3, pc}
    1114:	200000bc 	strhcs	r0, [r0], -ip
    1118:	00002c59 	andeq	r2, r0, r9, asr ip
    111c:	20000030 	andcs	r0, r0, r0, lsr r0
    1120:	deafdeaf 	cdple	14, 10, cr13, cr15, cr15, {5}
    1124:	20000024 	andcs	r0, r0, r4, lsr #32
    1128:	2000002c 	andcs	r0, r0, ip, lsr #32

0000112c <__pi_free>:
void __pi_free (aword *ch) {
    112c:	b508      	push	{r3, lr}
	if (ch == NULL)
    112e:	b1c8      	cbz	r0, 1164 <__pi_free+0x38>
	if ((m_size (ch) & MALLOC_UMASK) == 0)
    1130:	f850 3c04 	ldr.w	r3, [r0, #-4]
    1134:	2b00      	cmp	r3, #0
    1136:	db03      	blt.n	1140 <__pi_free+0x14>
		syserror (EMALLOC, "malg");
    1138:	2006      	movs	r0, #6
    113a:	490b      	ldr	r1, [pc, #44]	; (1168 <__pi_free+0x3c>)
    113c:	f7ff f8fe 	bl	33c <__pi_syserror>
	mcfree [MA_NP] += m_size (ch);
    1140:	490a      	ldr	r1, [pc, #40]	; (116c <__pi_free+0x40>)
		m_size (ch) ^= MALLOC_UMASK;
    1142:	f103 4300 	add.w	r3, r3, #2147483648	; 0x80000000
	mcfree [MA_NP] += m_size (ch);
    1146:	680a      	ldr	r2, [r1, #0]
		m_size (ch) ^= MALLOC_UMASK;
    1148:	f840 3c04 	str.w	r3, [r0, #-4]
	mcfree [MA_NP] += m_size (ch);
    114c:	4413      	add	r3, r2
    114e:	600b      	str	r3, [r1, #0]
	QFREE;
    1150:	f7ff fe1a 	bl	d88 <qfree>
	if (mevent [MA_NP] . nwait) {
    1154:	4806      	ldr	r0, [pc, #24]	; (1170 <__pi_free+0x44>)
    1156:	7803      	ldrb	r3, [r0, #0]
    1158:	b123      	cbz	r3, 1164 <__pi_free+0x38>
		trigger ((aword)(&(mevent [MA_NP])));
    115a:	f7ff fef3 	bl	f44 <__pi_trigger>
		mevent [MA_NP] . nwait --;
    115e:	7803      	ldrb	r3, [r0, #0]
    1160:	3b01      	subs	r3, #1
    1162:	7003      	strb	r3, [r0, #0]
}
    1164:	bd08      	pop	{r3, pc}
    1166:	bf00      	nop
    1168:	00002c5e 	andeq	r2, r0, lr, asr ip
    116c:	20000024 	andcs	r0, r0, r4, lsr #32
    1170:	20000028 	andcs	r0, r0, r8, lsr #32

00001174 <kill>:
void kill (aword pid) {
    1174:	b510      	push	{r4, lr}
	if (pid == 0)
    1176:	b908      	cbnz	r0, 117c <kill+0x8>
		pid = (aword) __pi_curr;
    1178:	4b0f      	ldr	r3, [pc, #60]	; (11b8 <kill+0x44>)
    117a:	6818      	ldr	r0, [r3, #0]
	j = NULL;
    117c:	2200      	movs	r2, #0
	for_all_tasks (i) {
    117e:	4b0f      	ldr	r3, [pc, #60]	; (11bc <kill+0x48>)
    1180:	681c      	ldr	r4, [r3, #0]
    1182:	b91c      	cbnz	r4, 118c <kill+0x18>
	syserror (EREQPAR, "kpi");
    1184:	2003      	movs	r0, #3
    1186:	490e      	ldr	r1, [pc, #56]	; (11c0 <kill+0x4c>)
    1188:	f7ff f8d8 	bl	33c <__pi_syserror>
		if ((aword)i == pid) {
    118c:	4284      	cmp	r4, r0
    118e:	6ae1      	ldr	r1, [r4, #44]	; 0x2c
    1190:	d10e      	bne.n	11b0 <kill+0x3c>
			if (j == NULL)
    1192:	b95a      	cbnz	r2, 11ac <kill+0x38>
				__PCB = i->Next;
    1194:	6019      	str	r1, [r3, #0]
			killev (i);
    1196:	4620      	mov	r0, r4
    1198:	f7ff fdd8 	bl	d4c <killev>
			ufree (i);
    119c:	f7ff ffc6 	bl	112c <__pi_free>
			if (i == __pi_curr)
    11a0:	4b05      	ldr	r3, [pc, #20]	; (11b8 <kill+0x44>)
    11a2:	681b      	ldr	r3, [r3, #0]
    11a4:	42a3      	cmp	r3, r4
    11a6:	d106      	bne.n	11b6 <kill+0x42>
				release;
    11a8:	f7ff fc74 	bl	a94 <__pi_release>
				j->Next = i->Next;
    11ac:	62d1      	str	r1, [r2, #44]	; 0x2c
    11ae:	e7f2      	b.n	1196 <kill+0x22>
    11b0:	4622      	mov	r2, r4
    11b2:	460c      	mov	r4, r1
    11b4:	e7e5      	b.n	1182 <kill+0xe>
}
    11b6:	bd10      	pop	{r4, pc}
    11b8:	200000b8 	strhcs	r0, [r0], -r8
    11bc:	2000001c 	andcs	r0, r0, ip, lsl r0
    11c0:	00002c63 	andeq	r2, r0, r3, ror #24

000011c4 <__pi_malloc>:
	if (size < 8)
    11c4:	2807      	cmp	r0, #7
		_size = 2;
    11c6:	bf98      	it	ls
    11c8:	2002      	movls	r0, #2
aword *__pi_malloc (word size) {
    11ca:	b538      	push	{r3, r4, r5, lr}
	for (chunk = mpools [MA_NP]; chunk != NULL; cc = chunk,
    11cc:	4b21      	ldr	r3, [pc, #132]	; (1254 <__pi_malloc+0x90>)
		_size = (((aword)size) + 3) >> 2;
    11ce:	bf88      	it	hi
    11d0:	3003      	addhi	r0, #3
	for (chunk = mpools [MA_NP]; chunk != NULL; cc = chunk,
    11d2:	681c      	ldr	r4, [r3, #0]
		if (m_magic (chunk) != MALLOC_MAGIC)
    11d4:	4920      	ldr	r1, [pc, #128]	; (1258 <__pi_malloc+0x94>)
		_size = (((aword)size) + 3) >> 2;
    11d6:	bf88      	it	hi
    11d8:	0880      	lsrhi	r0, r0, #2
	for (chunk = mpools [MA_NP]; chunk != NULL; cc = chunk,
    11da:	b94c      	cbnz	r4, 11f0 <__pi_malloc+0x2c>
		if (mevent [MA_NP] . nfail != 255)
    11dc:	4a1f      	ldr	r2, [pc, #124]	; (125c <__pi_malloc+0x98>)
    11de:	7853      	ldrb	r3, [r2, #1]
    11e0:	2bff      	cmp	r3, #255	; 0xff
    11e2:	d001      	beq.n	11e8 <__pi_malloc+0x24>
			mevent [MA_NP] . nfail ++;
    11e4:	3301      	adds	r3, #1
    11e6:	7053      	strb	r3, [r2, #1]
		mnfree [MA_NP] = 0;
    11e8:	2200      	movs	r2, #0
    11ea:	4b1d      	ldr	r3, [pc, #116]	; (1260 <__pi_malloc+0x9c>)
    11ec:	601a      	str	r2, [r3, #0]
	return chunk;
    11ee:	e02f      	b.n	1250 <__pi_malloc+0x8c>
		if (m_magic (chunk) != MALLOC_MAGIC)
    11f0:	6862      	ldr	r2, [r4, #4]
    11f2:	428a      	cmp	r2, r1
    11f4:	d003      	beq.n	11fe <__pi_malloc+0x3a>
			syserror (EMALLOC, "malc");
    11f6:	2006      	movs	r0, #6
    11f8:	491a      	ldr	r1, [pc, #104]	; (1264 <__pi_malloc+0xa0>)
    11fa:	f7ff f89f 	bl	33c <__pi_syserror>
		if (m_size (chunk) >= _size)
    11fe:	e954 5201 	ldrd	r5, r2, [r4, #-4]
    1202:	4285      	cmp	r5, r0
    1204:	d202      	bcs.n	120c <__pi_malloc+0x48>
		chunk = m_nextp (chunk)) {
    1206:	4623      	mov	r3, r4
    1208:	4614      	mov	r4, r2
    120a:	e7e6      	b.n	11da <__pi_malloc+0x16>
		m_setnextp (cc, m_nextp (chunk));
    120c:	601a      	str	r2, [r3, #0]
		if ((waste = m_size (chunk) - _size) > MAX_MALLOC_WASTE) {
    120e:	f854 3c04 	ldr.w	r3, [r4, #-4]
    1212:	1a1b      	subs	r3, r3, r0
    1214:	2b08      	cmp	r3, #8
    1216:	d909      	bls.n	122c <__pi_malloc+0x68>
			m_size (chunk) = _size;
    1218:	f844 0c04 	str.w	r0, [r4, #-4]
			cc = chunk + _size + m_hdrlen;
    121c:	3001      	adds	r0, #1
    121e:	eb04 0080 	add.w	r0, r4, r0, lsl #2
			m_size (cc) = waste - m_hdrlen;
    1222:	3b01      	subs	r3, #1
    1224:	f840 3c04 	str.w	r3, [r0, #-4]
			QFREE;
    1228:	f7ff fdae 	bl	d88 <qfree>
		mevent [MA_NP] . nfail = 0;
    122c:	2200      	movs	r2, #0
    122e:	4b0b      	ldr	r3, [pc, #44]	; (125c <__pi_malloc+0x98>)
		mcfree [MA_NP] -= m_size (chunk);
    1230:	490d      	ldr	r1, [pc, #52]	; (1268 <__pi_malloc+0xa4>)
		mevent [MA_NP] . nfail = 0;
    1232:	705a      	strb	r2, [r3, #1]
		mcfree [MA_NP] -= m_size (chunk);
    1234:	f854 2c04 	ldr.w	r2, [r4, #-4]
    1238:	680b      	ldr	r3, [r1, #0]
    123a:	1a9b      	subs	r3, r3, r2
    123c:	600b      	str	r3, [r1, #0]
		if (mnfree [MA_NP] > mcfree [MA_NP])
    123e:	4908      	ldr	r1, [pc, #32]	; (1260 <__pi_malloc+0x9c>)
		m_size (chunk) |= MALLOC_UMASK;
    1240:	f042 4200 	orr.w	r2, r2, #2147483648	; 0x80000000
		if (mnfree [MA_NP] > mcfree [MA_NP])
    1244:	6808      	ldr	r0, [r1, #0]
		m_size (chunk) |= MALLOC_UMASK;
    1246:	f844 2c04 	str.w	r2, [r4, #-4]
		if (mnfree [MA_NP] > mcfree [MA_NP])
    124a:	4283      	cmp	r3, r0
			mnfree [MA_NP] = mcfree [MA_NP];
    124c:	bf38      	it	cc
    124e:	600b      	strcc	r3, [r1, #0]
}
    1250:	4620      	mov	r0, r4
    1252:	bd38      	pop	{r3, r4, r5, pc}
    1254:	20000030 	andcs	r0, r0, r0, lsr r0
    1258:	deafdeaf 	cdple	14, 10, cr13, cr15, cr15, {5}
    125c:	20000028 	andcs	r0, r0, r8, lsr #32
    1260:	2000002c 	andcs	r0, r0, ip, lsr #32
    1264:	00002c67 	andeq	r2, r0, r7, ror #24
    1268:	20000024 	andcs	r0, r0, r4, lsr #32

0000126c <__pi_fork>:
aword __pi_fork (fsmcode func, aword data) {
    126c:	b538      	push	{r3, r4, r5, lr}
    126e:	4605      	mov	r5, r0
	if ((i = (__pi_pcb_t*) umalloc (sizeof (__pi_pcb_t))) == NULL)
    1270:	2030      	movs	r0, #48	; 0x30
aword __pi_fork (fsmcode func, aword data) {
    1272:	460c      	mov	r4, r1
	if ((i = (__pi_pcb_t*) umalloc (sizeof (__pi_pcb_t))) == NULL)
    1274:	f7ff ffa6 	bl	11c4 <__pi_malloc>
    1278:	2300      	movs	r3, #0
    127a:	b138      	cbz	r0, 128c <__pi_fork+0x20>
		if ((j = __PCB) == NULL)
    127c:	4a07      	ldr	r2, [pc, #28]	; (129c <__pi_fork+0x30>)
	i->Status = 0;
    127e:	8003      	strh	r3, [r0, #0]
	i->Next = NULL;
    1280:	62c3      	str	r3, [r0, #44]	; 0x2c
		if ((j = __PCB) == NULL)
    1282:	6813      	ldr	r3, [r2, #0]
	i->data = data;
    1284:	e9c0 5401 	strd	r5, r4, [r0, #4]
		if ((j = __PCB) == NULL)
    1288:	b90b      	cbnz	r3, 128e <__pi_fork+0x22>
			__PCB = i;
    128a:	6010      	str	r0, [r2, #0]
}
    128c:	bd38      	pop	{r3, r4, r5, pc}
			for (; j->Next != NULL; j = j->Next);
    128e:	461a      	mov	r2, r3
    1290:	6adb      	ldr	r3, [r3, #44]	; 0x2c
    1292:	2b00      	cmp	r3, #0
    1294:	d1fb      	bne.n	128e <__pi_fork+0x22>
			j->Next = i;
    1296:	62d0      	str	r0, [r2, #44]	; 0x2c
	return (aword) i;
    1298:	e7f8      	b.n	128c <__pi_fork+0x20>
    129a:	bf00      	nop
    129c:	2000001c 	andcs	r0, r0, ip, lsl r0

000012a0 <__pi_waitmem>:
	if (mevent [MA_NP] . nwait != 255)
    12a0:	4a04      	ldr	r2, [pc, #16]	; (12b4 <__pi_waitmem+0x14>)
void __pi_waitmem (word state) {
    12a2:	4601      	mov	r1, r0
	if (mevent [MA_NP] . nwait != 255)
    12a4:	7813      	ldrb	r3, [r2, #0]
	wait ((aword)(&(mevent [MA_NP])), state);
    12a6:	4803      	ldr	r0, [pc, #12]	; (12b4 <__pi_waitmem+0x14>)
	if (mevent [MA_NP] . nwait != 255)
    12a8:	2bff      	cmp	r3, #255	; 0xff
		mevent [MA_NP] . nwait ++;
    12aa:	bf1c      	itt	ne
    12ac:	3301      	addne	r3, #1
    12ae:	7013      	strbne	r3, [r2, #0]
	wait ((aword)(&(mevent [MA_NP])), state);
    12b0:	f7ff be2e 	b.w	f10 <__pi_wait>
    12b4:	20000028 	andcs	r0, r0, r8, lsr #32

000012b8 <diag>:

#endif	/* dbg_level */

#if	DIAG_MESSAGES

void diag (const char *mess, ...) {
    12b8:	b40f      	push	{r0, r1, r2, r3}
    12ba:	e92d 43f7 	stmdb	sp!, {r0, r1, r2, r4, r5, r6, r7, r8, r9, lr}
    12be:	ab0a      	add	r3, sp, #40	; 0x28
    12c0:	f853 4b04 	ldr.w	r4, [r3], #4
	sint bc;
	word v;
	byte is;

	va_start (ap, mess);
	diag_disable_int (a, is);
    12c4:	2015      	movs	r0, #21
	va_start (ap, mess);
    12c6:	9301      	str	r3, [sp, #4]
	diag_disable_int (a, is);
    12c8:	4b46      	ldr	r3, [pc, #280]	; (13e4 <diag+0x12c>)
				d = (bc == 16) ? 10000 : 1000000000;
				while (1) {
					// Strip initial zeros
					v = (word) (val / d);
					if (v || d == 1) break;
					d /= 10;
    12ca:	270a      	movs	r7, #10
	diag_disable_int (a, is);
    12cc:	681b      	ldr	r3, [r3, #0]
				d = (bc == 16) ? 10000 : 1000000000;
    12ce:	f8df 811c 	ldr.w	r8, [pc, #284]	; 13ec <diag+0x134>
	diag_disable_int (a, is);
    12d2:	695b      	ldr	r3, [r3, #20]
    12d4:	4798      	blx	r3
	while (*mess != '\0') {
    12d6:	7820      	ldrb	r0, [r4, #0]
    12d8:	b998      	cbnz	r0, 1302 <diag+0x4a>
		} else {
			dgout (*mess++);
		}
	}

	dgout ('\r');
    12da:	200d      	movs	r0, #13
    12dc:	f7ff fd94 	bl	e08 <dgout>
	dgout ('\n');
    12e0:	200a      	movs	r0, #10
    12e2:	f7ff fd91 	bl	e08 <dgout>
    12e6:	4a40      	ldr	r2, [pc, #256]	; (13e8 <diag+0x130>)
    12e8:	6813      	ldr	r3, [r2, #0]
	diag_wait (a);
    12ea:	071b      	lsls	r3, r3, #28
    12ec:	d4fc      	bmi.n	12e8 <diag+0x30>
	diag_enable_int (a, is);
    12ee:	4b3d      	ldr	r3, [pc, #244]	; (13e4 <diag+0x12c>)
    12f0:	2015      	movs	r0, #21
    12f2:	681b      	ldr	r3, [r3, #0]
    12f4:	691b      	ldr	r3, [r3, #16]
    12f6:	4798      	blx	r3
}
    12f8:	b003      	add	sp, #12
    12fa:	e8bd 43f0 	ldmia.w	sp!, {r4, r5, r6, r7, r8, r9, lr}
    12fe:	b004      	add	sp, #16
    1300:	4770      	bx	lr
		if (*mess == '%') {
    1302:	2825      	cmp	r0, #37	; 0x25
    1304:	f104 0601 	add.w	r6, r4, #1
    1308:	d169      	bne.n	13de <diag+0x126>
			if (*mess == 'l') {
    130a:	9b01      	ldr	r3, [sp, #4]
    130c:	7862      	ldrb	r2, [r4, #1]
    130e:	f853 1b04 	ldr.w	r1, [r3], #4
    1312:	2a6c      	cmp	r2, #108	; 0x6c
				mess++;
    1314:	bf08      	it	eq
    1316:	1ca6      	addeq	r6, r4, #2
				val = va_arg (ap, lword);
    1318:	9301      	str	r3, [sp, #4]
			switch (*mess) {
    131a:	7833      	ldrb	r3, [r6, #0]
				bc = 32;
    131c:	bf0c      	ite	eq
    131e:	2520      	moveq	r5, #32
				bc = 16;
    1320:	2510      	movne	r5, #16
			switch (*mess) {
    1322:	2b75      	cmp	r3, #117	; 0x75
    1324:	d04e      	beq.n	13c4 <diag+0x10c>
    1326:	d80a      	bhi.n	133e <diag+0x86>
    1328:	2b64      	cmp	r3, #100	; 0x64
    132a:	d01c      	beq.n	1366 <diag+0xae>
    132c:	2b73      	cmp	r3, #115	; 0x73
    132e:	d052      	beq.n	13d6 <diag+0x11e>
				dgout ('%');
    1330:	2025      	movs	r0, #37	; 0x25
    1332:	f7ff fd69 	bl	e08 <dgout>
				dgout (*mess);
    1336:	7830      	ldrb	r0, [r6, #0]
    1338:	f7ff fd66 	bl	e08 <dgout>
    133c:	e010      	b.n	1360 <diag+0xa8>
			switch (*mess) {
    133e:	2b78      	cmp	r3, #120	; 0x78
    1340:	d1f6      	bne.n	1330 <diag+0x78>
    1342:	2400      	movs	r4, #0
					v = __pi_hex_enc_table [
    1344:	f8df 90a8 	ldr.w	r9, [pc, #168]	; 13f0 <diag+0x138>
					i += 4;
    1348:	3404      	adds	r4, #4
					(val >> (bc - i)) & 0xf];
    134a:	1b2b      	subs	r3, r5, r4
    134c:	fa21 f303 	lsr.w	r3, r1, r3
    1350:	f003 030f 	and.w	r3, r3, #15
					dgout (v);
    1354:	f819 0003 	ldrb.w	r0, [r9, r3]
    1358:	f7ff fd56 	bl	e08 <dgout>
				while (i < bc) {
    135c:	42a5      	cmp	r5, r4
    135e:	dcf3      	bgt.n	1348 <diag+0x90>
			mess++;
    1360:	3601      	adds	r6, #1
					d /= 10;
    1362:	4634      	mov	r4, r6
    1364:	e7b7      	b.n	12d6 <diag+0x1e>
				if ((val >> (bc - 1)) & 1) {
    1366:	1e6b      	subs	r3, r5, #1
    1368:	fa21 f303 	lsr.w	r3, r1, r3
    136c:	07da      	lsls	r2, r3, #31
    136e:	d509      	bpl.n	1384 <diag+0xcc>
					dgout ('-');
    1370:	202d      	movs	r0, #45	; 0x2d
    1372:	f7ff fd49 	bl	e08 <dgout>
					if (bc == 16)
    1376:	2d10      	cmp	r5, #16
						val |= 0xffff0000;
    1378:	bf04      	itt	eq
    137a:	ea6f 4101 	mvneq.w	r1, r1, lsl #16
    137e:	ea6f 4111 	mvneq.w	r1, r1, lsr #16
					val = ~val + 1;
    1382:	4249      	negs	r1, r1
				d = (bc == 16) ? 10000 : 1000000000;
    1384:	f242 7410 	movw	r4, #10000	; 0x2710
    1388:	2d10      	cmp	r5, #16
    138a:	bf18      	it	ne
    138c:	4644      	movne	r4, r8
					v = (word) (val / d);
    138e:	fbb1 f5f4 	udiv	r5, r1, r4
    1392:	b2ad      	uxth	r5, r5
					if (v || d == 1) break;
    1394:	b935      	cbnz	r5, 13a4 <diag+0xec>
    1396:	2c01      	cmp	r4, #1
    1398:	d004      	beq.n	13a4 <diag+0xec>
					d /= 10;
    139a:	fbb4 f4f7 	udiv	r4, r4, r7
					v = (word) (val / d);
    139e:	e7f6      	b.n	138e <diag+0xd6>
				d = (bc == 16) ? 10000 : 1000000000;
    13a0:	4c12      	ldr	r4, [pc, #72]	; (13ec <diag+0x134>)
    13a2:	e7f4      	b.n	138e <diag+0xd6>
					dgout (v + '0');
    13a4:	f105 0030 	add.w	r0, r5, #48	; 0x30
    13a8:	b280      	uxth	r0, r0
    13aa:	f7ff fd2d 	bl	e08 <dgout>
					if (d == 0) break;
    13ae:	2c09      	cmp	r4, #9
					d /= 10;
    13b0:	fbb4 f3f7 	udiv	r3, r4, r7
					val = val - (v * d);
    13b4:	fb04 1115 	mls	r1, r4, r5, r1
					if (d == 0) break;
    13b8:	d9d2      	bls.n	1360 <diag+0xa8>
					v = (word) (val / d);
    13ba:	fbb1 f5f3 	udiv	r5, r1, r3
					d /= 10;
    13be:	461c      	mov	r4, r3
					v = (word) (val / d);
    13c0:	b2ad      	uxth	r5, r5
					dgout (v + '0');
    13c2:	e7ef      	b.n	13a4 <diag+0xec>
				if (bc == 16)
    13c4:	2d10      	cmp	r5, #16
    13c6:	d1eb      	bne.n	13a0 <diag+0xe8>
				d = (bc == 16) ? 10000 : 1000000000;
    13c8:	f242 7410 	movw	r4, #10000	; 0x2710
					val &= 0xffff;
    13cc:	b289      	uxth	r1, r1
				d = (bc == 16) ? 10000 : 1000000000;
    13ce:	e7de      	b.n	138e <diag+0xd6>
					dgout (*s);
    13d0:	f7ff fd1a 	bl	e08 <dgout>
					s++;
    13d4:	3101      	adds	r1, #1
				while (*s != '\0') {
    13d6:	7808      	ldrb	r0, [r1, #0]
    13d8:	2800      	cmp	r0, #0
    13da:	d1f9      	bne.n	13d0 <diag+0x118>
    13dc:	e7c0      	b.n	1360 <diag+0xa8>
			dgout (*mess++);
    13de:	f7ff fd13 	bl	e08 <dgout>
    13e2:	e7be      	b.n	1362 <diag+0xaa>
    13e4:	100001b0 			; <UNDEFINED> instruction: 0x100001b0
    13e8:	40001018 	andmi	r1, r0, r8, lsl r0
    13ec:	3b9aca00 	blcc	fe6b3bf4 <_estack+0xde6aebf4>
    13f0:	00002c6c 	andeq	r2, r0, ip, ror #24

000013f4 <tcv_init>:
	tcv_tservice = create TCVTimerService;
	tcv_tservice -> _pp_apid_ ();
#endif	/* __SMURPH__ */

#endif	/* TCV_TIMERS */
}
    13f4:	4770      	bx	lr

000013f6 <NmiSR>:
NmiSRHandler(void)
{
    //
    // Enter an infinite loop.
    //
    while(1)
    13f6:	e7fe      	b.n	13f6 <NmiSR>

000013f8 <FaultISR>:
FaultISRHandler(void)
{
    //
    // Enter an infinite loop.
    //
    while(1)
    13f8:	e7fe      	b.n	13f8 <FaultISR>

000013fa <AONIntHandler>:
IntDefaultHandler(void)
{
    //
    // Go into an infinite loop.
    //
    while(1)
    13fa:	e7fe      	b.n	13fa <AONIntHandler>

000013fc <ResetISR>:
{
    13fc:	b508      	push	{r3, lr}
    SetupTrimDevice();
    13fe:	f000 fddb 	bl	1fb8 <NOROM_SetupTrimDevice>
    for(pui32Dest = &_data; pui32Dest < &_edata; )
    1402:	4b0c      	ldr	r3, [pc, #48]	; (1434 <zero_loop+0x20>)
    pui32Src = &_etext;
    1404:	4a0c      	ldr	r2, [pc, #48]	; (1438 <zero_loop+0x24>)
    for(pui32Dest = &_data; pui32Dest < &_edata; )
    1406:	490d      	ldr	r1, [pc, #52]	; (143c <zero_loop+0x28>)
    1408:	428b      	cmp	r3, r1
    140a:	d30d      	bcc.n	1428 <zero_loop+0x14>
    __asm("    ldr     r0, =_bss\n"
    140c:	480c      	ldr	r0, [pc, #48]	; (1440 <zero_loop+0x2c>)
    140e:	490d      	ldr	r1, [pc, #52]	; (1444 <zero_loop+0x30>)
    1410:	f04f 0200 	mov.w	r2, #0

00001414 <zero_loop>:
    1414:	4288      	cmp	r0, r1
    1416:	bfb8      	it	lt
    1418:	f840 2b04 	strlt.w	r2, [r0], #4
    141c:	dbfa      	blt.n	1414 <zero_loop>
   main();
    141e:	f7ff fc65 	bl	cec <main>
    FaultISR();
    1422:	f7ff ffe9 	bl	13f8 <FaultISR>
}
    1426:	bd08      	pop	{r3, pc}
        *pui32Dest++ = *pui32Src++;
    1428:	f852 0b04 	ldr.w	r0, [r2], #4
    142c:	f843 0b04 	str.w	r0, [r3], #4
    1430:	e7ea      	b.n	1408 <ResetISR+0xc>
    1432:	bf00      	nop
    1434:	20000000 	andcs	r0, r0, r0
    1438:	00002c84 	andeq	r2, r0, r4, lsl #25
    143c:	20000000 	andcs	r0, r0, r0
    1440:	20000000 	andcs	r0, r0, r0
    1444:	200000bc 	strhcs	r0, [r0], -ip

00001448 <get_byte>:

static word	left;

// ============================================================================

static byte get_byte () {
    1448:	2308      	movs	r3, #8

	int i;
	byte b;

	for (b = 0, i = 0; i < 8; i++) {
    144a:	2000      	movs	r0, #0
    HWREG( GPIO_BASE + GPIO_O_DOUTSET31_0 ) = ( 1 << dioNumber );
    144c:	f44f 6280 	mov.w	r2, #1024	; 0x400
static byte get_byte () {
    1450:	b570      	push	{r4, r5, r6, lr}
    HWREG( GPIO_BASE + GPIO_O_DOUTCLR31_0 ) = ( 1 << dioNumber );
    1452:	4907      	ldr	r1, [pc, #28]	; (1470 <get_byte+0x28>)
    return (( HWREG( GPIO_BASE + GPIO_O_DIN31_0 ) >> dioNumber ) & 1 );
    1454:	4d07      	ldr	r5, [pc, #28]	; (1474 <get_byte+0x2c>)
    HWREG( GPIO_BASE + GPIO_O_DOUTSET31_0 ) = ( 1 << dioNumber );
    1456:	4c08      	ldr	r4, [pc, #32]	; (1478 <get_byte+0x30>)
    return (( HWREG( GPIO_BASE + GPIO_O_DIN31_0 ) >> dioNumber ) & 1 );
    1458:	682e      	ldr	r6, [r5, #0]
		b <<= 1;
    145a:	0040      	lsls	r0, r0, #1
		if (ee_inp)
    145c:	05f6      	lsls	r6, r6, #23
		b <<= 1;
    145e:	b2c0      	uxtb	r0, r0
			b |= 1;
    1460:	bf48      	it	mi
    1462:	f040 0001 	orrmi.w	r0, r0, #1
	for (b = 0, i = 0; i < 8; i++) {
    1466:	3b01      	subs	r3, #1
    HWREG( GPIO_BASE + GPIO_O_DOUTSET31_0 ) = ( 1 << dioNumber );
    1468:	6022      	str	r2, [r4, #0]
    HWREG( GPIO_BASE + GPIO_O_DOUTCLR31_0 ) = ( 1 << dioNumber );
    146a:	600a      	str	r2, [r1, #0]
    146c:	d1f4      	bne.n	1458 <get_byte+0x10>
		ee_clkh;
		ee_clkl;
	}

	return b;
}
    146e:	bd70      	pop	{r4, r5, r6, pc}
    1470:	400220a0 	andmi	r2, r2, r0, lsr #1
    1474:	400220c0 	andmi	r2, r2, r0, asr #1
    1478:	40022090 	mulmi	r2, r0, r0

0000147c <put_byte>:

static void put_byte (byte b) {
    147c:	b530      	push	{r4, r5, lr}
    147e:	2308      	movs	r3, #8
    1480:	f44f 7500 	mov.w	r5, #512	; 0x200
    HWREG( GPIO_BASE + GPIO_O_DOUTSET31_0 ) = ( 1 << dioNumber );
    1484:	f44f 6180 	mov.w	r1, #1024	; 0x400
    1488:	4c06      	ldr	r4, [pc, #24]	; (14a4 <put_byte+0x28>)
    148a:	4a07      	ldr	r2, [pc, #28]	; (14a8 <put_byte+0x2c>)

	int i;

	for (i = 0; i < 8; i++) {
		if (b & 0x80)
    148c:	f010 0f80 	tst.w	r0, #128	; 0x80
    1490:	bf14      	ite	ne
    1492:	6025      	strne	r5, [r4, #0]
    HWREG( GPIO_BASE + GPIO_O_DOUTCLR31_0 ) = ( 1 << dioNumber );
    1494:	6015      	streq	r5, [r2, #0]
			ee_outh;
		else
			ee_outl;
		ee_clkh;
		ee_clkl;
		b <<= 1;
    1496:	0040      	lsls	r0, r0, #1
	for (i = 0; i < 8; i++) {
    1498:	3b01      	subs	r3, #1
    HWREG( GPIO_BASE + GPIO_O_DOUTSET31_0 ) = ( 1 << dioNumber );
    149a:	6021      	str	r1, [r4, #0]
		b <<= 1;
    149c:	b2c0      	uxtb	r0, r0
    HWREG( GPIO_BASE + GPIO_O_DOUTCLR31_0 ) = ( 1 << dioNumber );
    149e:	6011      	str	r1, [r2, #0]
	for (i = 0; i < 8; i++) {
    14a0:	d1f4      	bne.n	148c <put_byte+0x10>
	}
}
    14a2:	bd30      	pop	{r4, r5, pc}
    14a4:	40022090 	mulmi	r2, r0, r0
    14a8:	400220a0 	andmi	r2, r2, r0, lsr #1

000014ac <cmd_0>:
    HWREGBITW( GPIO_BASE + GPIO_O_DOE31_0, dioNumber ) = outputEnableValue;
    14ac:	2301      	movs	r3, #1

// ============================================================================

static void cmd_0 (byte cmd) {
    14ae:	b510      	push	{r4, lr}
    14b0:	4c03      	ldr	r4, [pc, #12]	; (14c0 <cmd_0+0x14>)
    14b2:	6023      	str	r3, [r4, #0]

	ee_start;
	put_byte (cmd);
    14b4:	f7ff ffe2 	bl	147c <put_byte>
    14b8:	2300      	movs	r3, #0
    14ba:	6023      	str	r3, [r4, #0]
	ee_stop;
}
    14bc:	bd10      	pop	{r4, pc}
    14be:	bf00      	nop
    14c0:	42441a50 	submi	r1, r4, #80, 20	; 0x50000

000014c4 <wwait>:
	r = get_byte ();
	ee_stop;
	return r;
}

static void wwait (word st, word del) {
    14c4:	e92d 41f0 	stmdb	sp!, {r4, r5, r6, r7, r8, lr}
    14c8:	4604      	mov	r4, r0
    14ca:	460d      	mov	r5, r1
    14cc:	2701      	movs	r7, #1
//
// Wait for write to complete
//
	while (dopen && (rdsr () & 1)) {
    14ce:	f8df 8044 	ldr.w	r8, [pc, #68]	; 1514 <wwait+0x50>
    14d2:	4e0f      	ldr	r6, [pc, #60]	; (1510 <wwait+0x4c>)
    14d4:	f898 3000 	ldrb.w	r3, [r8]
    14d8:	b14b      	cbz	r3, 14ee <wwait+0x2a>
	put_byte (CMD_RDSR);
    14da:	2005      	movs	r0, #5
    14dc:	6037      	str	r7, [r6, #0]
    14de:	f7ff ffcd 	bl	147c <put_byte>
	r = get_byte ();
    14e2:	f7ff ffb1 	bl	1448 <get_byte>
    14e6:	2300      	movs	r3, #0
    14e8:	6033      	str	r3, [r6, #0]
	while (dopen && (rdsr () & 1)) {
    14ea:	07c3      	lsls	r3, r0, #31
    14ec:	d401      	bmi.n	14f2 <wwait+0x2e>
		else {
			delay (del, st);
			release;
		}
	}
}
    14ee:	e8bd 81f0 	ldmia.w	sp!, {r4, r5, r6, r7, r8, pc}
		if (st == WNONE)
    14f2:	f64f 73ff 	movw	r3, #65535	; 0xffff
    14f6:	429c      	cmp	r4, r3
    14f8:	d103      	bne.n	1502 <wwait+0x3e>
			mdelay (1);
    14fa:	2001      	movs	r0, #1
    14fc:	f7fe feea 	bl	2d4 <mdelay>
    1500:	e7e8      	b.n	14d4 <wwait+0x10>
			delay (del, st);
    1502:	4621      	mov	r1, r4
    1504:	4628      	mov	r0, r5
    1506:	f7ff fd49 	bl	f9c <delay>
			release;
    150a:	f7ff fac3 	bl	a94 <__pi_release>
    150e:	bf00      	nop
    1510:	42441a50 	submi	r1, r4, #80, 20	; 0x50000
    1514:	20000034 	andcs	r0, r0, r4, lsr r0

00001518 <ready>:
		dopen = 0;
		ee_bring_down;
	}
}

static void ready () {
    1518:	b5f8      	push	{r3, r4, r5, r6, r7, lr}
//
// Called before a new operation to make sure the chip is ready
//
	if (dopen) {
    151a:	4d0c      	ldr	r5, [pc, #48]	; (154c <ready+0x34>)
    151c:	782f      	ldrb	r7, [r5, #0]
    151e:	b147      	cbz	r7, 1532 <ready+0x1a>
		// The device is open
		wwait (WNONE, 1);
    1520:	2101      	movs	r1, #1
    1522:	f64f 70ff 	movw	r0, #65535	; 0xffff
    1526:	f7ff ffcd 	bl	14c4 <wwait>
	} else {
		copen ();
		dopen = DOPEN_TEMP;
	}

	dstat = 0;
    152a:	2200      	movs	r2, #0
    152c:	4b08      	ldr	r3, [pc, #32]	; (1550 <ready+0x38>)
    152e:	701a      	strb	r2, [r3, #0]
}
    1530:	bdf8      	pop	{r3, r4, r5, r6, r7, pc}
    1532:	2401      	movs	r4, #1
    1534:	4e07      	ldr	r6, [pc, #28]	; (1554 <ready+0x3c>)
	udelay (1);
    1536:	4620      	mov	r0, r4
    1538:	6034      	str	r4, [r6, #0]
    153a:	f7fe feb5 	bl	2a8 <udelay>
	udelay (1);
    153e:	4620      	mov	r0, r4
    1540:	6037      	str	r7, [r6, #0]
    1542:	f7fe feb1 	bl	2a8 <udelay>
		dopen = DOPEN_TEMP;
    1546:	2302      	movs	r3, #2
    1548:	702b      	strb	r3, [r5, #0]
    154a:	e7ee      	b.n	152a <ready+0x12>
    154c:	20000034 	andcs	r0, r0, r4, lsr r0
    1550:	20000035 	andcs	r0, r0, r5, lsr r0
    1554:	42441a50 	submi	r1, r4, #80, 20	; 0x50000

00001558 <cclose>:
static void cclose () {
    1558:	b510      	push	{r4, lr}
	if (dopen == DOPEN_TEMP) {
    155a:	4c07      	ldr	r4, [pc, #28]	; (1578 <cclose+0x20>)
    155c:	7823      	ldrb	r3, [r4, #0]
    155e:	2b02      	cmp	r3, #2
    1560:	d109      	bne.n	1576 <cclose+0x1e>
		wwait (WNONE, 1);
    1562:	2101      	movs	r1, #1
    1564:	f64f 70ff 	movw	r0, #65535	; 0xffff
    1568:	f7ff ffac 	bl	14c4 <wwait>
	cmd_0 (CMD_DP);
    156c:	20b9      	movs	r0, #185	; 0xb9
    156e:	f7ff ff9d 	bl	14ac <cmd_0>
		dopen = 0;
    1572:	2300      	movs	r3, #0
    1574:	7023      	strb	r3, [r4, #0]
}
    1576:	bd10      	pop	{r4, pc}
    1578:	20000034 	andcs	r0, r0, r4, lsr r0

0000157c <ee_open>:

// ============================================================================

word ee_open () {
    157c:	b508      	push	{r3, lr}
//
// Open (for more than one operation)
//
	ready ();
    157e:	f7ff ffcb 	bl	1518 <ready>
	dopen = DOPEN_PERM;
    1582:	2201      	movs	r2, #1
    1584:	4b01      	ldr	r3, [pc, #4]	; (158c <ee_open+0x10>)
		ee_stop;
		diag ("ID: %x %x %x", r [0], r [1], r [2]);
	}
#endif
	return 0;
}
    1586:	2000      	movs	r0, #0
	dopen = DOPEN_PERM;
    1588:	701a      	strb	r2, [r3, #0]
}
    158a:	bd08      	pop	{r3, pc}
    158c:	20000034 	andcs	r0, r0, r4, lsr r0

00001590 <ee_close>:

void ee_close () {

	if (dopen) {
    1590:	4b03      	ldr	r3, [pc, #12]	; (15a0 <ee_close+0x10>)
    1592:	781a      	ldrb	r2, [r3, #0]
    1594:	b11a      	cbz	r2, 159e <ee_close+0xe>
		dopen = DOPEN_TEMP;
    1596:	2202      	movs	r2, #2
    1598:	701a      	strb	r2, [r3, #0]
		cclose ();
    159a:	f7ff bfdd 	b.w	1558 <cclose>
	}
}
    159e:	4770      	bx	lr
    15a0:	20000034 	andcs	r0, r0, r4, lsr r0

000015a4 <ser_in>:

extern char *__inpline;

procname (__inserial);

int ser_in (word st, char *buf, int len) {
    15a4:	b5f8      	push	{r3, r4, r5, r6, r7, lr}
    15a6:	4604      	mov	r4, r0
    15a8:	460f      	mov	r7, r1
/* ======= */
/* Direct */
/* ====== */
	int prcs;

	if (len == 0)
    15aa:	4615      	mov	r5, r2
    15ac:	b37a      	cbz	r2, 160e <ser_in+0x6a>
		// Just in case
		return 0;

	if (__inpline == NULL) {
    15ae:	4e19      	ldr	r6, [pc, #100]	; (1614 <ser_in+0x70>)
    15b0:	6830      	ldr	r0, [r6, #0]
    15b2:	b988      	cbnz	r0, 15d8 <ser_in+0x34>
		if ((prcs = running (__inserial)) == 0) {
    15b4:	4818      	ldr	r0, [pc, #96]	; (1618 <ser_in+0x74>)
    15b6:	f7ff fd0d 	bl	fd4 <running>
    15ba:	b948      	cbnz	r0, 15d0 <ser_in+0x2c>
			prcs = runthread (__inserial);
    15bc:	4601      	mov	r1, r0
    15be:	4816      	ldr	r0, [pc, #88]	; (1618 <ser_in+0x74>)
    15c0:	f7ff fe54 	bl	126c <__pi_fork>
			if (prcs == 0) {
    15c4:	b920      	cbnz	r0, 15d0 <ser_in+0x2c>
				npwait (st);
    15c6:	4620      	mov	r0, r4
    15c8:	f7ff fe6a 	bl	12a0 <__pi_waitmem>
				release;
			}
		}
		join (prcs, st);
		release;
    15cc:	f7ff fa62 	bl	a94 <__pi_release>
		join (prcs, st);
    15d0:	4621      	mov	r1, r4
    15d2:	f7ff fcd1 	bl	f78 <__pi_join>
    15d6:	e7f9      	b.n	15cc <ser_in+0x28>
	}

	/* Input available */
	if (*__inpline == NULL) // bin cmd
    15d8:	7803      	ldrb	r3, [r0, #0]
    15da:	b9a3      	cbnz	r3, 1606 <ser_in+0x62>
		prcs = __inpline[1] + 3; // 0x00, len, 0x04
    15dc:	7844      	ldrb	r4, [r0, #1]
    15de:	3403      	adds	r4, #3
	else
		prcs = strlen (__inpline);

	if (prcs >= len)
    15e0:	42ac      	cmp	r4, r5
		prcs = len-1;
    15e2:	bfa8      	it	ge
    15e4:	f105 34ff 	addge.w	r4, r5, #4294967295	; 0xffffffff

	memcpy (buf, __inpline, prcs);
    15e8:	4622      	mov	r2, r4
    15ea:	4638      	mov	r0, r7
    15ec:	6831      	ldr	r1, [r6, #0]
    15ee:	f7ff fd0a 	bl	1006 <__pi_memcpy>
	ufree (__inpline);
    15f2:	6830      	ldr	r0, [r6, #0]
    15f4:	f7ff fd9a 	bl	112c <__pi_free>
	__inpline = NULL;
    15f8:	2300      	movs	r3, #0
    15fa:	6033      	str	r3, [r6, #0]
	if (*buf) // if it's NULL, it's a bin cmd
    15fc:	783a      	ldrb	r2, [r7, #0]
    15fe:	b102      	cbz	r2, 1602 <ser_in+0x5e>
		buf [prcs] = '\0';
    1600:	553b      	strb	r3, [r7, r4]
	return prcs;
}
    1602:	4620      	mov	r0, r4
    1604:	bdf8      	pop	{r3, r4, r5, r6, r7, pc}
		prcs = strlen (__inpline);
    1606:	f7ff fcf7 	bl	ff8 <__pi_strlen>
    160a:	4604      	mov	r4, r0
    160c:	e7e8      	b.n	15e0 <ser_in+0x3c>
		return 0;
    160e:	4614      	mov	r4, r2
    1610:	e7f7      	b.n	1602 <ser_in+0x5e>
    1612:	bf00      	nop
    1614:	20000040 	andcs	r0, r0, r0, asr #32
    1618:	00001741 	andeq	r1, r0, r1, asr #14

0000161c <ser_outf>:

//+++ "__outserial.c"

procname (__outserial);

int ser_outf (word st, const char *m, ...) {
    161c:	b40e      	push	{r1, r2, r3}
    161e:	b577      	push	{r0, r1, r2, r4, r5, r6, lr}
    1620:	4604      	mov	r4, r0

	int prcs;
	char *buf;
	va_list ap;

	if ((prcs = running (__outserial)) != 0) {
    1622:	4812      	ldr	r0, [pc, #72]	; (166c <ser_outf+0x50>)
    1624:	f7ff fcd6 	bl	fd4 <running>
    1628:	4606      	mov	r6, r0
    162a:	b120      	cbz	r0, 1636 <ser_outf+0x1a>
		/* We have to wait */
		join (prcs, st);
    162c:	4621      	mov	r1, r4
    162e:	f7ff fca3 	bl	f78 <__pi_join>
	if ((buf = vform (NULL, m, ap)) == NULL) {
		/*
		 * This means that we are out of memory
		 */
		umwait (st);
		release;
    1632:	f7ff fa2f 	bl	a94 <__pi_release>
	va_start (ap, m);
    1636:	aa08      	add	r2, sp, #32
	if ((buf = vform (NULL, m, ap)) == NULL) {
    1638:	9907      	ldr	r1, [sp, #28]
	va_start (ap, m);
    163a:	9201      	str	r2, [sp, #4]
	if ((buf = vform (NULL, m, ap)) == NULL) {
    163c:	f000 fa36 	bl	1aac <vform>
    1640:	4605      	mov	r5, r0
    1642:	b918      	cbnz	r0, 164c <ser_outf+0x30>
		umwait (st);
    1644:	4620      	mov	r0, r4
    1646:	f7ff fe2b 	bl	12a0 <__pi_waitmem>
    164a:	e7f2      	b.n	1632 <ser_outf+0x16>
	}

	if (runstrand (__outserial, buf) == 0) {
    164c:	4601      	mov	r1, r0
    164e:	4807      	ldr	r0, [pc, #28]	; (166c <ser_outf+0x50>)
    1650:	f7ff fe0c 	bl	126c <__pi_fork>
    1654:	b918      	cbnz	r0, 165e <ser_outf+0x42>
		ufree (buf);
    1656:	4628      	mov	r0, r5
    1658:	f7ff fd68 	bl	112c <__pi_free>
		npwait (st);
    165c:	e7f2      	b.n	1644 <ser_outf+0x28>
		release;
	}

	return 0;
}
    165e:	4630      	mov	r0, r6
    1660:	b003      	add	sp, #12
    1662:	e8bd 4070 	ldmia.w	sp!, {r4, r5, r6, lr}
    1666:	b003      	add	sp, #12
    1668:	4770      	bx	lr
    166a:	bf00      	nop
    166c:	000016d1 	ldrdeq	r1, [r0], -r1	; <UNPREDICTABLE>

00001670 <ser_inf>:

extern char *__inpline;

procname (__inserial);

int ser_inf (word st, const char *fmt, ...) {
    1670:	b40e      	push	{r1, r2, r3}
    1672:	b533      	push	{r0, r1, r4, r5, lr}
    1674:	9905      	ldr	r1, [sp, #20]
    1676:	4604      	mov	r4, r0
/* ========= */

	int prcs;
	va_list	ap;

	if (fmt == NULL)
    1678:	b321      	cbz	r1, 16c4 <ser_inf+0x54>
		return 0;

	if (__inpline == NULL) {
    167a:	4d13      	ldr	r5, [pc, #76]	; (16c8 <ser_inf+0x58>)
    167c:	6828      	ldr	r0, [r5, #0]
    167e:	b988      	cbnz	r0, 16a4 <ser_inf+0x34>
		if ((prcs = running (__inserial)) == 0) {
    1680:	4812      	ldr	r0, [pc, #72]	; (16cc <ser_inf+0x5c>)
    1682:	f7ff fca7 	bl	fd4 <running>
    1686:	b948      	cbnz	r0, 169c <ser_inf+0x2c>
			prcs = runthread (__inserial);
    1688:	4601      	mov	r1, r0
    168a:	4810      	ldr	r0, [pc, #64]	; (16cc <ser_inf+0x5c>)
    168c:	f7ff fdee 	bl	126c <__pi_fork>
			if (prcs == 0) {
    1690:	b920      	cbnz	r0, 169c <ser_inf+0x2c>
				npwait (st);
    1692:	4620      	mov	r0, r4
    1694:	f7ff fe04 	bl	12a0 <__pi_waitmem>
				release;
			}
		}
		join (prcs, st);
		release;
    1698:	f7ff f9fc 	bl	a94 <__pi_release>
		join (prcs, st);
    169c:	4621      	mov	r1, r4
    169e:	f7ff fc6b 	bl	f78 <__pi_join>
    16a2:	e7f9      	b.n	1698 <ser_inf+0x28>
	}

	/* Input available */
	va_start (ap, fmt);
    16a4:	aa06      	add	r2, sp, #24
    16a6:	9201      	str	r2, [sp, #4]

	prcs = vscan (__inpline, fmt, ap);
    16a8:	f000 fa28 	bl	1afc <vscan>
    16ac:	4604      	mov	r4, r0

	ufree (__inpline);
    16ae:	6828      	ldr	r0, [r5, #0]
    16b0:	f7ff fd3c 	bl	112c <__pi_free>
	__inpline = NULL;
    16b4:	2300      	movs	r3, #0
    16b6:	602b      	str	r3, [r5, #0]

	return prcs;
}
    16b8:	4620      	mov	r0, r4
    16ba:	b002      	add	sp, #8
    16bc:	e8bd 4030 	ldmia.w	sp!, {r4, r5, lr}
    16c0:	b003      	add	sp, #12
    16c2:	4770      	bx	lr
		return 0;
    16c4:	460c      	mov	r4, r1
    16c6:	e7f7      	b.n	16b8 <ser_inf+0x48>
    16c8:	20000040 	andcs	r0, r0, r0, asr #32
    16cc:	00001741 	andeq	r1, r0, r1, asr #14

000016d0 <__outserial>:
#define	__cport		UART_A
#define	set_cport	CNOP

#endif	/* UART_DRIVER > 1 */

strand (__outserial, const char*)
    16d0:	b5f7      	push	{r0, r1, r2, r4, r5, r6, r7, lr}
    16d2:	4b18      	ldr	r3, [pc, #96]	; (1734 <__outserial+0x64>)
    16d4:	681b      	ldr	r3, [r3, #0]
    16d6:	689d      	ldr	r5, [r3, #8]
    16d8:	b130      	cbz	r0, 16e8 <__outserial+0x18>
    16da:	280a      	cmp	r0, #10
    16dc:	d00d      	beq.n	16fa <__outserial+0x2a>
	// prone
	goto __OM_WRITE;

	// proceed (OM_WRITE);

endstrand
    16de:	b003      	add	sp, #12
    16e0:	e8bd 40f0 	ldmia.w	sp!, {r4, r5, r6, r7, lr}
    16e4:	f7ff bb9c 	b.w	e20 <__pi_badstate>
	ptr = data;
    16e8:	4b13      	ldr	r3, [pc, #76]	; (1738 <__outserial+0x68>)
    16ea:	4c14      	ldr	r4, [pc, #80]	; (173c <__outserial+0x6c>)
    16ec:	601d      	str	r5, [r3, #0]
	if (*ptr)
    16ee:	782b      	ldrb	r3, [r5, #0]
    16f0:	b1e3      	cbz	r3, 172c <__outserial+0x5c>
		len = strlen (ptr);
    16f2:	4628      	mov	r0, r5
    16f4:	f7ff fc80 	bl	ff8 <__pi_strlen>
    16f8:	6020      	str	r0, [r4, #0]
	quant = io (OM_WRITE, __cport, WRITE, (char*)ptr, len);
    16fa:	4e0f      	ldr	r6, [pc, #60]	; (1738 <__outserial+0x68>)
    16fc:	4f0f      	ldr	r7, [pc, #60]	; (173c <__outserial+0x6c>)
    16fe:	883b      	ldrh	r3, [r7, #0]
    1700:	2201      	movs	r2, #1
    1702:	9300      	str	r3, [sp, #0]
    1704:	2100      	movs	r1, #0
    1706:	6833      	ldr	r3, [r6, #0]
    1708:	200a      	movs	r0, #10
    170a:	f7ff fc99 	bl	1040 <io>
	ptr += quant;
    170e:	6833      	ldr	r3, [r6, #0]
	len -= quant;
    1710:	683c      	ldr	r4, [r7, #0]
	ptr += quant;
    1712:	4403      	add	r3, r0
	len -= quant;
    1714:	1a24      	subs	r4, r4, r0
	ptr += quant;
    1716:	6033      	str	r3, [r6, #0]
	len -= quant;
    1718:	603c      	str	r4, [r7, #0]
	if (len == 0) {
    171a:	2c00      	cmp	r4, #0
    171c:	d1ef      	bne.n	16fe <__outserial+0x2e>
		ufree (data);
    171e:	4628      	mov	r0, r5
    1720:	f7ff fd04 	bl	112c <__pi_free>
		finish;
    1724:	4620      	mov	r0, r4
    1726:	f7ff fd25 	bl	1174 <kill>
    172a:	e7e8      	b.n	16fe <__outserial+0x2e>
		len = ptr [1] +3; // 3: 0x00, len, 0x04
    172c:	786b      	ldrb	r3, [r5, #1]
    172e:	3303      	adds	r3, #3
    1730:	6023      	str	r3, [r4, #0]
    1732:	e7e2      	b.n	16fa <__outserial+0x2a>
    1734:	200000b8 	strhcs	r0, [r0], -r8
    1738:	2000003c 	andcs	r0, r0, ip, lsr r0
    173c:	20000038 	andcs	r0, r0, r8, lsr r0

00001740 <__inserial>:
#define	IM_INIT		0
#define	IM_READ		1
#define IM_BIN		2
#define IM_BINL		3

strand (__inserial, address)
    1740:	b5f7      	push	{r0, r1, r2, r4, r5, r6, r7, lr}
    1742:	4d42      	ldr	r5, [pc, #264]	; (184c <__inserial+0x10c>)
    1744:	682a      	ldr	r2, [r5, #0]
    1746:	6894      	ldr	r4, [r2, #8]
    1748:	2803      	cmp	r0, #3
    174a:	d87a      	bhi.n	1842 <__inserial+0x102>
    174c:	e8df f000 	tbb	[pc, r0]
    1750:	5d481802 	stclpl	8, cr1, [r8, #-8]
	static int len;
	int quant;

  entry (IM_INIT)

	if (__inpline != NULL)
    1754:	4b3e      	ldr	r3, [pc, #248]	; (1850 <__inserial+0x110>)
    1756:	681b      	ldr	r3, [r3, #0]
    1758:	b113      	cbz	r3, 1760 <__inserial+0x20>
		/* Never overwrite previous unclaimed stuff */
		finish;
    175a:	2000      	movs	r0, #0
    175c:	f7ff fd0a 	bl	1174 <kill>

	// On eCOG char* is non-trivially upgraded from 'address'
	if ((ptr = (char*) (data = umalloc (MAX_LINE_LENGTH + 1))) == NULL) {
    1760:	2040      	movs	r0, #64	; 0x40
    1762:	f7ff fd2f 	bl	11c4 <__pi_malloc>
    1766:	4b3b      	ldr	r3, [pc, #236]	; (1854 <__inserial+0x114>)
    1768:	4604      	mov	r4, r0
    176a:	6018      	str	r0, [r3, #0]
    176c:	b918      	cbnz	r0, 1776 <__inserial+0x36>
		/*
		 * We have to wait for memory
		 */
		umwait (IM_INIT);
    176e:	f7ff fd97 	bl	12a0 <__pi_waitmem>
		release;
    1772:	f7ff f98f 	bl	a94 <__pi_release>
	}
	savedata (data);
	len = MAX_LINE_LENGTH;
    1776:	223f      	movs	r2, #63	; 0x3f
	savedata (data);
    1778:	682b      	ldr	r3, [r5, #0]
    177a:	6098      	str	r0, [r3, #8]
	len = MAX_LINE_LENGTH;
    177c:	4b36      	ldr	r3, [pc, #216]	; (1858 <__inserial+0x118>)
    177e:	601a      	str	r2, [r3, #0]
	/* Make sure this doesn't change while we are reading */
	set_cport;

  entry (IM_READ)

	io (IM_READ, __cport, READ, ptr, 1);
    1780:	2001      	movs	r0, #1
    1782:	2200      	movs	r2, #0
    1784:	4d33      	ldr	r5, [pc, #204]	; (1854 <__inserial+0x114>)
    1786:	9000      	str	r0, [sp, #0]
    1788:	682b      	ldr	r3, [r5, #0]
    178a:	4611      	mov	r1, r2
    178c:	f7ff fc58 	bl	1040 <io>
	if (ptr == (char*) data) { // new line
    1790:	682b      	ldr	r3, [r5, #0]
    1792:	42a3      	cmp	r3, r4
    1794:	d10d      	bne.n	17b2 <__inserial+0x72>
		if (*ptr == '\0') { // bin cmd
    1796:	7823      	ldrb	r3, [r4, #0]
    1798:	b923      	cbnz	r3, 17a4 <__inserial+0x64>
			ptr++;
    179a:	1c63      	adds	r3, r4, #1
			proceed (IM_BIN);
    179c:	2002      	movs	r0, #2
			ptr++;
    179e:	602b      	str	r3, [r5, #0]
			proceed (IM_BIN);
    17a0:	f7ff fbac 	bl	efc <proceed>
		}

		if (*ptr < 0x20)
    17a4:	682b      	ldr	r3, [r5, #0]
    17a6:	781b      	ldrb	r3, [r3, #0]
    17a8:	2b1f      	cmp	r3, #31
    17aa:	d802      	bhi.n	17b2 <__inserial+0x72>
			/* Ignore codes below space at the beginning of line */
			proceed (IM_READ);
    17ac:	2001      	movs	r0, #1
    17ae:	f7ff fba5 	bl	efc <proceed>
	}
	if (*ptr == '\n' || *ptr == '\r') {
    17b2:	682b      	ldr	r3, [r5, #0]
    17b4:	781a      	ldrb	r2, [r3, #0]
    17b6:	2a0a      	cmp	r2, #10
    17b8:	d001      	beq.n	17be <__inserial+0x7e>
    17ba:	2a0d      	cmp	r2, #13
    17bc:	d105      	bne.n	17ca <__inserial+0x8a>
		*ptr = '\0';
    17be:	2000      	movs	r0, #0
    17c0:	7018      	strb	r0, [r3, #0]
		__inpline = (char*)data;
    17c2:	4b23      	ldr	r3, [pc, #140]	; (1850 <__inserial+0x110>)
    17c4:	601c      	str	r4, [r3, #0]
		finish;
    17c6:	f7ff fcd5 	bl	1174 <kill>
	}

	if (len) {
    17ca:	4923      	ldr	r1, [pc, #140]	; (1858 <__inserial+0x118>)
    17cc:	680b      	ldr	r3, [r1, #0]
    17ce:	b123      	cbz	r3, 17da <__inserial+0x9a>
		ptr++;
    17d0:	682a      	ldr	r2, [r5, #0]
		len--;
    17d2:	3b01      	subs	r3, #1
		ptr++;
    17d4:	3201      	adds	r2, #1
    17d6:	602a      	str	r2, [r5, #0]
		len--;
    17d8:	600b      	str	r3, [r1, #0]
	}

	proceed (IM_READ);
    17da:	2001      	movs	r0, #1
    17dc:	f7ff fb8e 	bl	efc <proceed>

  entry (IM_BIN)

	io (IM_BIN, __cport, READ, ptr, 1);
    17e0:	2301      	movs	r3, #1
    17e2:	2200      	movs	r2, #0
    17e4:	4d1b      	ldr	r5, [pc, #108]	; (1854 <__inserial+0x114>)
    17e6:	9300      	str	r3, [sp, #0]
    17e8:	4611      	mov	r1, r2
    17ea:	682b      	ldr	r3, [r5, #0]
    17ec:	2002      	movs	r0, #2
    17ee:	f7ff fc27 	bl	1040 <io>
	len -= 2;
    17f2:	4819      	ldr	r0, [pc, #100]	; (1858 <__inserial+0x118>)
    17f4:	6803      	ldr	r3, [r0, #0]
    17f6:	1e9a      	subs	r2, r3, #2
	if (len > *ptr + 1) // 1 for 0x04
    17f8:	682b      	ldr	r3, [r5, #0]
    17fa:	f813 1b01 	ldrb.w	r1, [r3], #1
    17fe:	3101      	adds	r1, #1
		len = *ptr + 1;
    1800:	4291      	cmp	r1, r2
    1802:	bfd4      	ite	le
    1804:	6001      	strle	r1, [r0, #0]
    1806:	6002      	strgt	r2, [r0, #0]
	ptr++;
    1808:	602b      	str	r3, [r5, #0]

  entry (IM_BINL)

	quant = io (IM_BINL, __cport, READ, ptr, len);
    180a:	2200      	movs	r2, #0
    180c:	4f12      	ldr	r7, [pc, #72]	; (1858 <__inserial+0x118>)
    180e:	4d11      	ldr	r5, [pc, #68]	; (1854 <__inserial+0x114>)
    1810:	883b      	ldrh	r3, [r7, #0]
    1812:	4611      	mov	r1, r2
    1814:	9300      	str	r3, [sp, #0]
    1816:	682b      	ldr	r3, [r5, #0]
    1818:	2003      	movs	r0, #3
    181a:	f7ff fc11 	bl	1040 <io>
	len -= quant;
    181e:	683b      	ldr	r3, [r7, #0]
	quant = io (IM_BINL, __cport, READ, ptr, len);
    1820:	4606      	mov	r6, r0
	len -= quant;
    1822:	1a18      	subs	r0, r3, r0
    1824:	6038      	str	r0, [r7, #0]
	if (len == 0) {
    1826:	b918      	cbnz	r0, 1830 <__inserial+0xf0>
		__inpline = (char*)data;
    1828:	4b09      	ldr	r3, [pc, #36]	; (1850 <__inserial+0x110>)
    182a:	601c      	str	r4, [r3, #0]
		finish;
    182c:	f7ff fca2 	bl	1174 <kill>
	}
	ptr += quant;
    1830:	6828      	ldr	r0, [r5, #0]
    1832:	4430      	add	r0, r6
    1834:	6028      	str	r0, [r5, #0]
	proceed (IM_BINL);
    1836:	2003      	movs	r0, #3

endstrand
    1838:	b003      	add	sp, #12
    183a:	e8bd 40f0 	ldmia.w	sp!, {r4, r5, r6, r7, lr}
	proceed (IM_BINL);
    183e:	f7ff bb5d 	b.w	efc <proceed>
endstrand
    1842:	b003      	add	sp, #12
    1844:	e8bd 40f0 	ldmia.w	sp!, {r4, r5, r6, r7, lr}
    1848:	f7ff baea 	b.w	e20 <__pi_badstate>
    184c:	200000b8 	strhcs	r0, [r0], -r8
    1850:	20000040 	andcs	r0, r0, r0, asr #32
    1854:	20000048 	andcs	r0, r0, r8, asr #32
    1858:	20000044 	andcs	r0, r0, r4, asr #32

0000185c <outc.5724>:

	char c;
	word d;

	void outc (word c) {
		if (res && (d < n))
    185c:	f8dc 2000 	ldr.w	r2, [ip]
    1860:	b132      	cbz	r2, 1870 <outc.5724+0x14>
    1862:	f8bc 3006 	ldrh.w	r3, [ip, #6]
    1866:	f8bc 1004 	ldrh.w	r1, [ip, #4]
    186a:	4299      	cmp	r1, r3
			// Store if there is a buffer ...
			res [d] = (char) c;
    186c:	bf88      	it	hi
    186e:	54d0      	strbhi	r0, [r2, r3]
		// ... otherwise just count
		d++;
    1870:	f8bc 3006 	ldrh.w	r3, [ip, #6]
    1874:	3301      	adds	r3, #1
    1876:	f8ac 3006 	strh.w	r3, [ip, #6]
	};
    187a:	4770      	bx	lr

0000187c <__pi_vfparse>:
word __pi_vfparse (char *res, word n, const char *fm, va_list ap) {
    187c:	e92d 47ff 	stmdb	sp!, {r0, r1, r2, r3, r4, r5, r6, r7, r8, r9, sl, lr}
    1880:	461c      	mov	r4, r3
    1882:	ab0c      	add	r3, sp, #48	; 0x30
    1884:	9303      	str	r3, [sp, #12]
			if (i == 0) \
				break; \
			c = (char) (val / i); \
		}

	d = 0;
    1886:	2300      	movs	r3, #0
				if (c == 'd' && (val & 0x8000) != 0) {
					/* Minus */
					outc ('-');
					val = (~val) + 1;
				}
				enci (10000);
    1888:	260a      	movs	r6, #10
						[ (val >> i) & 0xf ]);
    188a:	4f86      	ldr	r7, [pc, #536]	; (1aa4 <__pi_vfparse+0x228>)
word __pi_vfparse (char *res, word n, const char *fm, va_list ap) {
    188c:	9001      	str	r0, [sp, #4]
    188e:	f8ad 1008 	strh.w	r1, [sp, #8]
	d = 0;
    1892:	f8ad 300a 	strh.w	r3, [sp, #10]
		c = *fm++;
    1896:	f892 9000 	ldrb.w	r9, [r2]
		if (c == '\\') {
    189a:	f1b9 0f5c 	cmp.w	r9, #92	; 0x5c
    189e:	d118      	bne.n	18d2 <__pi_vfparse+0x56>
			if ((c = *fm++) == '\0') {
    18a0:	f892 9001 	ldrb.w	r9, [r2, #1]
    18a4:	1c95      	adds	r5, r2, #2
				outc ('\\');
    18a6:	f10d 0c04 	add.w	ip, sp, #4
			if ((c = *fm++) == '\0') {
    18aa:	f1b9 0f00 	cmp.w	r9, #0
    18ae:	d10b      	bne.n	18c8 <__pi_vfparse+0x4c>
				outc ('\\');
    18b0:	205c      	movs	r0, #92	; 0x5c
    18b2:	f7ff ffd3 	bl	185c <outc.5724>
					goto Ret;
			}
		} else {
			// Regular character
Eol:
			outc (c);
    18b6:	4648      	mov	r0, r9
    18b8:	f10d 0c04 	add.w	ip, sp, #4
    18bc:	f7ff ffce 	bl	185c <outc.5724>
			if (c == '\0')
    18c0:	f1b9 0f00 	cmp.w	r9, #0
    18c4:	d103      	bne.n	18ce <__pi_vfparse+0x52>
    18c6:	e027      	b.n	1918 <__pi_vfparse+0x9c>
			outc (c);
    18c8:	4648      	mov	r0, r9
				outc (val);
    18ca:	f7ff ffc7 	bl	185c <outc.5724>
				val = (word) va_arg (ap, aword);
    18ce:	462a      	mov	r2, r5
    18d0:	e7e1      	b.n	1896 <__pi_vfparse+0x1a>
		if (c == '%') {
    18d2:	f1b9 0f25 	cmp.w	r9, #37	; 0x25
    18d6:	f040 80e2 	bne.w	1a9e <__pi_vfparse+0x222>
			c = *fm++;
    18da:	f892 8001 	ldrb.w	r8, [r2, #1]
    18de:	1c95      	adds	r5, r2, #2
			switch (c) {
    18e0:	f1b8 0f73 	cmp.w	r8, #115	; 0x73
    18e4:	f000 80cd 	beq.w	1a82 <__pi_vfparse+0x206>
    18e8:	d81b      	bhi.n	1922 <__pi_vfparse+0xa6>
    18ea:	f1b8 0f64 	cmp.w	r8, #100	; 0x64
    18ee:	d033      	beq.n	1958 <__pi_vfparse+0xdc>
    18f0:	f1b8 0f6c 	cmp.w	r8, #108	; 0x6c
    18f4:	d067      	beq.n	19c6 <__pi_vfparse+0x14a>
    18f6:	f1b8 0f63 	cmp.w	r8, #99	; 0x63
    18fa:	f000 80bc 	beq.w	1a76 <__pi_vfparse+0x1fa>
				outc ('%');
    18fe:	2025      	movs	r0, #37	; 0x25
    1900:	f10d 0c04 	add.w	ip, sp, #4
    1904:	f7ff ffaa 	bl	185c <outc.5724>
				outc (c);
    1908:	4640      	mov	r0, r8
    190a:	f10d 0c04 	add.w	ip, sp, #4
    190e:	f7ff ffa5 	bl	185c <outc.5724>
				if (c == '\0')
    1912:	f1b8 0f00 	cmp.w	r8, #0
    1916:	d1da      	bne.n	18ce <__pi_vfparse+0x52>
Ret:
				return d;
    1918:	f8bd 000a 	ldrh.w	r0, [sp, #10]
		}
	}
}
    191c:	b004      	add	sp, #16
    191e:	e8bd 87f0 	ldmia.w	sp!, {r4, r5, r6, r7, r8, r9, sl, pc}
			switch (c) {
    1922:	f1b8 0f75 	cmp.w	r8, #117	; 0x75
    1926:	d017      	beq.n	1958 <__pi_vfparse+0xdc>
    1928:	f1b8 0f78 	cmp.w	r8, #120	; 0x78
    192c:	d1e7      	bne.n	18fe <__pi_vfparse+0x82>
				for (i = 12; ; i -= 4) {
    192e:	f04f 080c 	mov.w	r8, #12
				val = (word) va_arg (ap, aword);
    1932:	f854 3b04 	ldr.w	r3, [r4], #4
						[ (val >> i) & 0xf ]);
    1936:	fa1f f983 	uxth.w	r9, r3
    193a:	fa49 f308 	asr.w	r3, r9, r8
    193e:	f003 030f 	and.w	r3, r3, #15
					outc (__pi_hex_enc_table
    1942:	5cf8      	ldrb	r0, [r7, r3]
    1944:	f10d 0c04 	add.w	ip, sp, #4
    1948:	f7ff ff88 	bl	185c <outc.5724>
					if (i == 0)
    194c:	f1b8 0f00 	cmp.w	r8, #0
    1950:	d0bd      	beq.n	18ce <__pi_vfparse+0x52>
				for (i = 12; ; i -= 4) {
    1952:	f1a8 0804 	sub.w	r8, r8, #4
					outc (__pi_hex_enc_table
    1956:	e7f0      	b.n	193a <__pi_vfparse+0xbe>
				val = (word) va_arg (ap, aword);
    1958:	f854 3b04 	ldr.w	r3, [r4], #4
				if (c == 'd' && (val & 0x8000) != 0) {
    195c:	f1b8 0f64 	cmp.w	r8, #100	; 0x64
				val = (word) va_arg (ap, aword);
    1960:	fa1f f983 	uxth.w	r9, r3
				if (c == 'd' && (val & 0x8000) != 0) {
    1964:	d10a      	bne.n	197c <__pi_vfparse+0x100>
    1966:	041b      	lsls	r3, r3, #16
    1968:	d508      	bpl.n	197c <__pi_vfparse+0x100>
					outc ('-');
    196a:	202d      	movs	r0, #45	; 0x2d
    196c:	f10d 0c04 	add.w	ip, sp, #4
    1970:	f7ff ff74 	bl	185c <outc.5724>
					val = (~val) + 1;
    1974:	f1c9 0900 	rsb	r9, r9, #0
    1978:	fa1f f989 	uxth.w	r9, r9
				for (i = 12; ; i -= 4) {
    197c:	2305      	movs	r3, #5
				enci (10000);
    197e:	f242 7810 	movw	r8, #10000	; 0x2710
    1982:	fbb9 f0f8 	udiv	r0, r9, r8
    1986:	f010 00ff 	ands.w	r0, r0, #255	; 0xff
    198a:	d103      	bne.n	1994 <__pi_vfparse+0x118>
    198c:	3b01      	subs	r3, #1
    198e:	d117      	bne.n	19c0 <__pi_vfparse+0x144>
    1990:	f04f 0801 	mov.w	r8, #1
    1994:	fa1f fa80 	uxth.w	sl, r0
    1998:	f10d 0c04 	add.w	ip, sp, #4
    199c:	3030      	adds	r0, #48	; 0x30
    199e:	f7ff ff5d 	bl	185c <outc.5724>
    19a2:	fbb8 f3f6 	udiv	r3, r8, r6
    19a6:	fb08 991a 	mls	r9, r8, sl, r9
    19aa:	f1b8 0f09 	cmp.w	r8, #9
    19ae:	fa1f f989 	uxth.w	r9, r9
    19b2:	b29b      	uxth	r3, r3
    19b4:	d98b      	bls.n	18ce <__pi_vfparse+0x52>
    19b6:	fbb9 f0f3 	udiv	r0, r9, r3
    19ba:	4698      	mov	r8, r3
    19bc:	b2c0      	uxtb	r0, r0
    19be:	e7e9      	b.n	1994 <__pi_vfparse+0x118>
    19c0:	fbb8 f8f6 	udiv	r8, r8, r6
    19c4:	e7dd      	b.n	1982 <__pi_vfparse+0x106>
				c = *fm;
    19c6:	7893      	ldrb	r3, [r2, #2]
				if (c == 'd' || c == 'u') {
    19c8:	2b64      	cmp	r3, #100	; 0x64
    19ca:	d001      	beq.n	19d0 <__pi_vfparse+0x154>
    19cc:	2b75      	cmp	r3, #117	; 0x75
    19ce:	d132      	bne.n	1a36 <__pi_vfparse+0x1ba>
					if (c == 'd' &&
    19d0:	2b64      	cmp	r3, #100	; 0x64
					val = va_arg (ap, lword);
    19d2:	f854 ab04 	ldr.w	sl, [r4], #4
					fm++;
    19d6:	f102 0503 	add.w	r5, r2, #3
					if (c == 'd' &&
    19da:	d109      	bne.n	19f0 <__pi_vfparse+0x174>
    19dc:	f1ba 0f00 	cmp.w	sl, #0
    19e0:	da06      	bge.n	19f0 <__pi_vfparse+0x174>
						outc ('-');
    19e2:	202d      	movs	r0, #45	; 0x2d
    19e4:	f10d 0c04 	add.w	ip, sp, #4
    19e8:	f7ff ff38 	bl	185c <outc.5724>
						val = (~val) + 1;
    19ec:	f1ca 0a00 	rsb	sl, sl, #0
				enci (10000);
    19f0:	230a      	movs	r3, #10
					enci (1000000000UL);
    19f2:	f8df 80b4 	ldr.w	r8, [pc, #180]	; 1aa8 <__pi_vfparse+0x22c>
    19f6:	fbba f9f8 	udiv	r9, sl, r8
    19fa:	f019 09ff 	ands.w	r9, r9, #255	; 0xff
    19fe:	d103      	bne.n	1a08 <__pi_vfparse+0x18c>
    1a00:	3b01      	subs	r3, #1
    1a02:	d115      	bne.n	1a30 <__pi_vfparse+0x1b4>
    1a04:	f04f 0801 	mov.w	r8, #1
    1a08:	f10d 0c04 	add.w	ip, sp, #4
    1a0c:	f109 0030 	add.w	r0, r9, #48	; 0x30
    1a10:	f7ff ff24 	bl	185c <outc.5724>
    1a14:	f1b8 0f09 	cmp.w	r8, #9
    1a18:	fbb8 f3f6 	udiv	r3, r8, r6
    1a1c:	fb08 aa19 	mls	sl, r8, r9, sl
    1a20:	f67f af55 	bls.w	18ce <__pi_vfparse+0x52>
    1a24:	fbba f9f3 	udiv	r9, sl, r3
    1a28:	4698      	mov	r8, r3
    1a2a:	fa5f f989 	uxtb.w	r9, r9
    1a2e:	e7eb      	b.n	1a08 <__pi_vfparse+0x18c>
    1a30:	fbb8 f8f6 	udiv	r8, r8, r6
    1a34:	e7df      	b.n	19f6 <__pi_vfparse+0x17a>
				} else if (c == 'x') {
    1a36:	2b78      	cmp	r3, #120	; 0x78
    1a38:	d114      	bne.n	1a64 <__pi_vfparse+0x1e8>
					for (i = 28; ; i -= 4) {
    1a3a:	f04f 081c 	mov.w	r8, #28
					val = va_arg (ap, lword);
    1a3e:	f854 9b04 	ldr.w	r9, [r4], #4
					fm++;
    1a42:	1cd5      	adds	r5, r2, #3
							[ (val >> i) & 0xf ]);
    1a44:	fa29 f308 	lsr.w	r3, r9, r8
    1a48:	f003 030f 	and.w	r3, r3, #15
						outc (__pi_hex_enc_table
    1a4c:	5cf8      	ldrb	r0, [r7, r3]
    1a4e:	f10d 0c04 	add.w	ip, sp, #4
    1a52:	f7ff ff03 	bl	185c <outc.5724>
						if (i == 0)
    1a56:	f1b8 0f00 	cmp.w	r8, #0
    1a5a:	f43f af38 	beq.w	18ce <__pi_vfparse+0x52>
					for (i = 28; ; i -= 4) {
    1a5e:	f1a8 0804 	sub.w	r8, r8, #4
						outc (__pi_hex_enc_table
    1a62:	e7ef      	b.n	1a44 <__pi_vfparse+0x1c8>
					outc ('%');
    1a64:	4648      	mov	r0, r9
    1a66:	f10d 0c04 	add.w	ip, sp, #4
    1a6a:	f7ff fef7 	bl	185c <outc.5724>
					outc ('l');
    1a6e:	4640      	mov	r0, r8
    1a70:	f10d 0c04 	add.w	ip, sp, #4
    1a74:	e729      	b.n	18ca <__pi_vfparse+0x4e>
				val = (word) va_arg (ap, aword);
    1a76:	f854 0b04 	ldr.w	r0, [r4], #4
				outc (val);
    1a7a:	f10d 0c04 	add.w	ip, sp, #4
    1a7e:	b280      	uxth	r0, r0
    1a80:	e723      	b.n	18ca <__pi_vfparse+0x4e>
				while (*st != '\0') {
    1a82:	f854 3b04 	ldr.w	r3, [r4], #4
    1a86:	f103 38ff 	add.w	r8, r3, #4294967295	; 0xffffffff
    1a8a:	f818 0f01 	ldrb.w	r0, [r8, #1]!
    1a8e:	2800      	cmp	r0, #0
    1a90:	f43f af1d 	beq.w	18ce <__pi_vfparse+0x52>
					outc (*st);
    1a94:	f10d 0c04 	add.w	ip, sp, #4
    1a98:	f7ff fee0 	bl	185c <outc.5724>
					st++;
    1a9c:	e7f5      	b.n	1a8a <__pi_vfparse+0x20e>
		c = *fm++;
    1a9e:	1c55      	adds	r5, r2, #1
    1aa0:	e709      	b.n	18b6 <__pi_vfparse+0x3a>
    1aa2:	bf00      	nop
    1aa4:	00002c6c 	andeq	r2, r0, ip, ror #24
    1aa8:	3b9aca00 	blcc	fe6b42b0 <_estack+0xde6af2b0>

00001aac <vform>:

char *vform (char *res, const char *fm, va_list aq) {
    1aac:	e92d 41f0 	stmdb	sp!, {r4, r5, r6, r7, r8, lr}
    1ab0:	460e      	mov	r6, r1
    1ab2:	4617      	mov	r7, r2

	word fml, d;

	if (res != NULL) {
    1ab4:	4604      	mov	r4, r0
    1ab6:	b140      	cbz	r0, 1aca <vform+0x1e>
		// We trust the caller
		__pi_vfparse (res, MAX_WORD, fm, aq);
    1ab8:	4613      	mov	r3, r2
    1aba:	460a      	mov	r2, r1
    1abc:	f64f 71ff 	movw	r1, #65535	; 0xffff
    1ac0:	f7ff fedc 	bl	187c <__pi_vfparse>
		ufree (res);
		fml = d;
		goto Again;
	}
	return res;
}
    1ac4:	4620      	mov	r0, r4
    1ac6:	e8bd 81f0 	ldmia.w	sp!, {r4, r5, r6, r7, r8, pc}
	fml = strlen (fm) + 17;
    1aca:	4608      	mov	r0, r1
    1acc:	f7ff fa94 	bl	ff8 <__pi_strlen>
    1ad0:	f100 0511 	add.w	r5, r0, #17
    1ad4:	b2ad      	uxth	r5, r5
	if ((res = (char*) umalloc (fml)) == NULL)
    1ad6:	4628      	mov	r0, r5
    1ad8:	f7ff fb74 	bl	11c4 <__pi_malloc>
    1adc:	4604      	mov	r4, r0
    1ade:	2800      	cmp	r0, #0
    1ae0:	d0f0      	beq.n	1ac4 <vform+0x18>
	if ((d = __pi_vfparse (res, fml, fm, aq)) > fml) {
    1ae2:	463b      	mov	r3, r7
    1ae4:	4632      	mov	r2, r6
    1ae6:	4629      	mov	r1, r5
    1ae8:	f7ff fec8 	bl	187c <__pi_vfparse>
    1aec:	4285      	cmp	r5, r0
    1aee:	4680      	mov	r8, r0
    1af0:	d2e8      	bcs.n	1ac4 <vform+0x18>
		ufree (res);
    1af2:	4620      	mov	r0, r4
    1af4:	f7ff fb1a 	bl	112c <__pi_free>
		goto Again;
    1af8:	4645      	mov	r5, r8
    1afa:	e7ec      	b.n	1ad6 <vform+0x2a>

00001afc <vscan>:
					c -= (char) ('A' - 10); \
				*vap = ((*vap) << 4) | (at) c; \
			} \
			}

	if (buf == NULL || fmt == NULL)
    1afc:	4603      	mov	r3, r0
int vscan (const char *buf, const char *fmt, va_list ap) {
    1afe:	e92d 43f0 	stmdb	sp!, {r4, r5, r6, r7, r8, r9, lr}
	if (buf == NULL || fmt == NULL)
    1b02:	2800      	cmp	r0, #0
    1b04:	f000 81b5 	beq.w	1e72 <vscan+0x376>
    1b08:	2900      	cmp	r1, #0
    1b0a:	f000 81b4 	beq.w	1e76 <vscan+0x37a>
		// A safety hatch
		return 0;

	nc = 0;
    1b0e:	2400      	movs	r4, #0
#if	CODE_LONG_INTS
		    case 'l':
			switch (*fmt++) {
			    case '\0':	return nc;
		    	    case 'd': scani (lword); break;
		    	    case 'u': scanu (lword); break;
    1b10:	270a      	movs	r7, #10
    1b12:	4625      	mov	r5, r4
			*sap = c;
			break;
		    }
		    case 's': {
			char *sap;
			while (isspace (*buf)) buf++;
    1b14:	f8df c370 	ldr.w	ip, [pc, #880]	; 1e88 <vscan+0x38c>
    1b18:	460e      	mov	r6, r1
	while (*fmt != '\0') {
    1b1a:	f811 0b01 	ldrb.w	r0, [r1], #1
    1b1e:	b170      	cbz	r0, 1b3e <vscan+0x42>
		if (*fmt++ != '%')
    1b20:	2825      	cmp	r0, #37	; 0x25
    1b22:	d1f9      	bne.n	1b18 <vscan+0x1c>
		switch (*fmt++) {
    1b24:	7870      	ldrb	r0, [r6, #1]
    1b26:	1cb1      	adds	r1, r6, #2
    1b28:	286c      	cmp	r0, #108	; 0x6c
    1b2a:	f000 80e1 	beq.w	1cf0 <vscan+0x1f4>
    1b2e:	d809      	bhi.n	1b44 <vscan+0x48>
    1b30:	2863      	cmp	r0, #99	; 0x63
    1b32:	f000 8184 	beq.w	1e3e <vscan+0x342>
    1b36:	2864      	cmp	r0, #100	; 0x64
    1b38:	d043      	beq.n	1bc2 <vscan+0xc6>
    1b3a:	2800      	cmp	r0, #0
    1b3c:	d1ec      	bne.n	1b18 <vscan+0x1c>
			break;
		    }
		}
	}
	return nc;
}
    1b3e:	4620      	mov	r0, r4
    1b40:	e8bd 83f0 	ldmia.w	sp!, {r4, r5, r6, r7, r8, r9, pc}
		switch (*fmt++) {
    1b44:	2875      	cmp	r0, #117	; 0x75
    1b46:	d074      	beq.n	1c32 <vscan+0x136>
    1b48:	2878      	cmp	r0, #120	; 0x78
    1b4a:	f000 8098 	beq.w	1c7e <vscan+0x182>
    1b4e:	2873      	cmp	r0, #115	; 0x73
    1b50:	d1e2      	bne.n	1b18 <vscan+0x1c>
			while (isspace (*buf)) buf++;
    1b52:	7818      	ldrb	r0, [r3, #0]
    1b54:	461e      	mov	r6, r3
    1b56:	f1a0 0e09 	sub.w	lr, r0, #9
    1b5a:	fa5f fe8e 	uxtb.w	lr, lr
    1b5e:	f1be 0f17 	cmp.w	lr, #23
    1b62:	4698      	mov	r8, r3
    1b64:	f103 0301 	add.w	r3, r3, #1
    1b68:	f240 8173 	bls.w	1e52 <vscan+0x356>
			if (*buf == '\0')
    1b6c:	2800      	cmp	r0, #0
    1b6e:	d0e6      	beq.n	1b3e <vscan+0x42>
			if (*buf != ',') {
    1b70:	282c      	cmp	r0, #44	; 0x2c
			sap = va_arg (ap, char*);
    1b72:	f852 eb04 	ldr.w	lr, [r2], #4
			nc++;
    1b76:	f104 0401 	add.w	r4, r4, #1
			if (*buf != ',') {
    1b7a:	d00e      	beq.n	1b9a <vscan+0x9e>
    1b7c:	4646      	mov	r6, r8
				while (!isspace (*buf) && *buf != ',' &&
    1b7e:	f818 3b01 	ldrb.w	r3, [r8], #1
    1b82:	f1a3 0009 	sub.w	r0, r3, #9
    1b86:	2801      	cmp	r0, #1
    1b88:	d907      	bls.n	1b9a <vscan+0x9e>
    1b8a:	2b0d      	cmp	r3, #13
    1b8c:	d005      	beq.n	1b9a <vscan+0x9e>
    1b8e:	2b2c      	cmp	r3, #44	; 0x2c
    1b90:	d003      	beq.n	1b9a <vscan+0x9e>
    1b92:	f013 0fdf 	tst.w	r3, #223	; 0xdf
    1b96:	f040 8163 	bne.w	1e60 <vscan+0x364>
			while (isspace (*buf)) buf++;
    1b9a:	f896 8000 	ldrb.w	r8, [r6]
    1b9e:	4633      	mov	r3, r6
    1ba0:	f1a8 0009 	sub.w	r0, r8, #9
    1ba4:	b2c0      	uxtb	r0, r0
    1ba6:	2817      	cmp	r0, #23
    1ba8:	f106 0601 	add.w	r6, r6, #1
    1bac:	f240 815b 	bls.w	1e66 <vscan+0x36a>
			if (*buf == ',') buf++;
    1bb0:	f1b8 0f2c 	cmp.w	r8, #44	; 0x2c
    1bb4:	bf08      	it	eq
    1bb6:	4633      	moveq	r3, r6
			*sap = '\0';
    1bb8:	f88e 5000 	strb.w	r5, [lr]
			break;
    1bbc:	e7ac      	b.n	1b18 <vscan+0x1c>
		    case 'd': scani (word); break;
    1bbe:	2e00      	cmp	r6, #0
    1bc0:	d0bd      	beq.n	1b3e <vscan+0x42>
    1bc2:	469e      	mov	lr, r3
    1bc4:	f813 6b01 	ldrb.w	r6, [r3], #1
    1bc8:	f1a6 0030 	sub.w	r0, r6, #48	; 0x30
    1bcc:	2809      	cmp	r0, #9
    1bce:	d923      	bls.n	1c18 <vscan+0x11c>
    1bd0:	2e2d      	cmp	r6, #45	; 0x2d
    1bd2:	d001      	beq.n	1bd8 <vscan+0xdc>
    1bd4:	2e2b      	cmp	r6, #43	; 0x2b
    1bd6:	d1f2      	bne.n	1bbe <vscan+0xc2>
    1bd8:	7818      	ldrb	r0, [r3, #0]
    1bda:	469e      	mov	lr, r3
    1bdc:	3830      	subs	r0, #48	; 0x30
    1bde:	2809      	cmp	r0, #9
    1be0:	d8ef      	bhi.n	1bc2 <vscan+0xc6>
    1be2:	f1a6 092d 	sub.w	r9, r6, #45	; 0x2d
    1be6:	f1d9 0800 	rsbs	r8, r9, #0
    1bea:	eb48 0809 	adc.w	r8, r8, r9
    1bee:	f852 6b04 	ldr.w	r6, [r2], #4
    1bf2:	3401      	adds	r4, #1
    1bf4:	8035      	strh	r5, [r6, #0]
    1bf6:	f89e 0000 	ldrb.w	r0, [lr]
    1bfa:	4673      	mov	r3, lr
    1bfc:	f1a0 0930 	sub.w	r9, r0, #48	; 0x30
    1c00:	f1b9 0f09 	cmp.w	r9, #9
    1c04:	f10e 0e01 	add.w	lr, lr, #1
    1c08:	d909      	bls.n	1c1e <vscan+0x122>
    1c0a:	f1b8 0f00 	cmp.w	r8, #0
    1c0e:	d183      	bne.n	1b18 <vscan+0x1c>
    1c10:	8830      	ldrh	r0, [r6, #0]
    1c12:	4240      	negs	r0, r0
    1c14:	8030      	strh	r0, [r6, #0]
    1c16:	e77f      	b.n	1b18 <vscan+0x1c>
    1c18:	f04f 0800 	mov.w	r8, #0
    1c1c:	e7e7      	b.n	1bee <vscan+0xf2>
    1c1e:	8833      	ldrh	r3, [r6, #0]
    1c20:	eb03 0383 	add.w	r3, r3, r3, lsl #2
    1c24:	ebc0 0043 	rsb	r0, r0, r3, lsl #1
    1c28:	3030      	adds	r0, #48	; 0x30
    1c2a:	8030      	strh	r0, [r6, #0]
    1c2c:	e7e3      	b.n	1bf6 <vscan+0xfa>
		    case 'u': scanu (word); break;
    1c2e:	2800      	cmp	r0, #0
    1c30:	d085      	beq.n	1b3e <vscan+0x42>
    1c32:	7818      	ldrb	r0, [r3, #0]
    1c34:	461e      	mov	r6, r3
    1c36:	f1a0 0e30 	sub.w	lr, r0, #48	; 0x30
    1c3a:	f1be 0f09 	cmp.w	lr, #9
    1c3e:	f103 0301 	add.w	r3, r3, #1
    1c42:	d8f4      	bhi.n	1c2e <vscan+0x132>
    1c44:	f852 eb04 	ldr.w	lr, [r2], #4
    1c48:	3401      	adds	r4, #1
    1c4a:	f8ae 5000 	strh.w	r5, [lr]
    1c4e:	7830      	ldrb	r0, [r6, #0]
    1c50:	4633      	mov	r3, r6
    1c52:	f1a0 0830 	sub.w	r8, r0, #48	; 0x30
    1c56:	f1b8 0f09 	cmp.w	r8, #9
    1c5a:	f106 0601 	add.w	r6, r6, #1
    1c5e:	f63f af5b 	bhi.w	1b18 <vscan+0x1c>
    1c62:	f8be 3000 	ldrh.w	r3, [lr]
    1c66:	eb03 0383 	add.w	r3, r3, r3, lsl #2
    1c6a:	eb00 0043 	add.w	r0, r0, r3, lsl #1
    1c6e:	3830      	subs	r0, #48	; 0x30
    1c70:	f8ae 0000 	strh.w	r0, [lr]
    1c74:	e7eb      	b.n	1c4e <vscan+0x152>
		    case 'x': scanx (word); break;
    1c76:	f1be 0f00 	cmp.w	lr, #0
    1c7a:	f43f af60 	beq.w	1b3e <vscan+0x42>
    1c7e:	f893 e000 	ldrb.w	lr, [r3]
    1c82:	461e      	mov	r6, r3
    1c84:	f1ae 0030 	sub.w	r0, lr, #48	; 0x30
    1c88:	2809      	cmp	r0, #9
    1c8a:	f103 0301 	add.w	r3, r3, #1
    1c8e:	d904      	bls.n	1c9a <vscan+0x19e>
    1c90:	f02e 0020 	bic.w	r0, lr, #32
    1c94:	3841      	subs	r0, #65	; 0x41
    1c96:	2805      	cmp	r0, #5
    1c98:	d8ed      	bhi.n	1c76 <vscan+0x17a>
    1c9a:	f852 eb04 	ldr.w	lr, [r2], #4
    1c9e:	3401      	adds	r4, #1
    1ca0:	f8ae 5000 	strh.w	r5, [lr]
    1ca4:	f106 0805 	add.w	r8, r6, #5
    1ca8:	f896 9000 	ldrb.w	r9, [r6]
    1cac:	4633      	mov	r3, r6
    1cae:	f1a9 0030 	sub.w	r0, r9, #48	; 0x30
    1cb2:	b2c0      	uxtb	r0, r0
    1cb4:	2809      	cmp	r0, #9
    1cb6:	f106 0601 	add.w	r6, r6, #1
    1cba:	f240 80de 	bls.w	1e7a <vscan+0x37e>
    1cbe:	f029 0020 	bic.w	r0, r9, #32
    1cc2:	3841      	subs	r0, #65	; 0x41
    1cc4:	2805      	cmp	r0, #5
    1cc6:	f63f af27 	bhi.w	1b18 <vscan+0x1c>
    1cca:	4546      	cmp	r6, r8
    1ccc:	f43f af24 	beq.w	1b18 <vscan+0x1c>
    1cd0:	f1a9 0361 	sub.w	r3, r9, #97	; 0x61
    1cd4:	2b05      	cmp	r3, #5
    1cd6:	bf94      	ite	ls
    1cd8:	f1a9 0057 	subls.w	r0, r9, #87	; 0x57
    1cdc:	f1a9 0037 	subhi.w	r0, r9, #55	; 0x37
    1ce0:	b2c0      	uxtb	r0, r0
    1ce2:	f8be 3000 	ldrh.w	r3, [lr]
    1ce6:	ea40 1003 	orr.w	r0, r0, r3, lsl #4
    1cea:	f8ae 0000 	strh.w	r0, [lr]
    1cee:	e7db      	b.n	1ca8 <vscan+0x1ac>
			switch (*fmt++) {
    1cf0:	78b0      	ldrb	r0, [r6, #2]
    1cf2:	1cf1      	adds	r1, r6, #3
    1cf4:	2875      	cmp	r0, #117	; 0x75
    1cf6:	d07d      	beq.n	1df4 <vscan+0x2f8>
    1cf8:	d831      	bhi.n	1d5e <vscan+0x262>
    1cfa:	2800      	cmp	r0, #0
    1cfc:	f43f af1f 	beq.w	1b3e <vscan+0x42>
    1d00:	2864      	cmp	r0, #100	; 0x64
    1d02:	f47f af09 	bne.w	1b18 <vscan+0x1c>
    1d06:	4698      	mov	r8, r3
		    	    case 'd': scani (lword); break;
    1d08:	f813 6b01 	ldrb.w	r6, [r3], #1
    1d0c:	f1a6 0030 	sub.w	r0, r6, #48	; 0x30
    1d10:	2809      	cmp	r0, #9
    1d12:	d962      	bls.n	1dda <vscan+0x2de>
    1d14:	2e2d      	cmp	r6, #45	; 0x2d
    1d16:	d001      	beq.n	1d1c <vscan+0x220>
    1d18:	2e2b      	cmp	r6, #43	; 0x2b
    1d1a:	d15b      	bne.n	1dd4 <vscan+0x2d8>
    1d1c:	7818      	ldrb	r0, [r3, #0]
    1d1e:	4698      	mov	r8, r3
    1d20:	3830      	subs	r0, #48	; 0x30
    1d22:	2809      	cmp	r0, #9
    1d24:	d8ef      	bhi.n	1d06 <vscan+0x20a>
    1d26:	3e2d      	subs	r6, #45	; 0x2d
    1d28:	4270      	negs	r0, r6
    1d2a:	4170      	adcs	r0, r6
    1d2c:	f852 eb04 	ldr.w	lr, [r2], #4
    1d30:	3401      	adds	r4, #1
    1d32:	f8ce 5000 	str.w	r5, [lr]
    1d36:	f898 6000 	ldrb.w	r6, [r8]
    1d3a:	4643      	mov	r3, r8
    1d3c:	3e30      	subs	r6, #48	; 0x30
    1d3e:	fa5f f986 	uxtb.w	r9, r6
    1d42:	f1b9 0f09 	cmp.w	r9, #9
    1d46:	f108 0801 	add.w	r8, r8, #1
    1d4a:	d948      	bls.n	1dde <vscan+0x2e2>
    1d4c:	2800      	cmp	r0, #0
    1d4e:	f47f aee3 	bne.w	1b18 <vscan+0x1c>
    1d52:	f8de 0000 	ldr.w	r0, [lr]
    1d56:	4240      	negs	r0, r0
    1d58:	f8ce 0000 	str.w	r0, [lr]
    1d5c:	e6dc      	b.n	1b18 <vscan+0x1c>
    1d5e:	2878      	cmp	r0, #120	; 0x78
    1d60:	f47f aeda 	bne.w	1b18 <vscan+0x1c>
		    	    case 'x': scanx (lword); break;
    1d64:	f893 e000 	ldrb.w	lr, [r3]
    1d68:	461e      	mov	r6, r3
    1d6a:	f1ae 0030 	sub.w	r0, lr, #48	; 0x30
    1d6e:	2809      	cmp	r0, #9
    1d70:	f103 0301 	add.w	r3, r3, #1
    1d74:	d904      	bls.n	1d80 <vscan+0x284>
    1d76:	f02e 0020 	bic.w	r0, lr, #32
    1d7a:	3841      	subs	r0, #65	; 0x41
    1d7c:	2805      	cmp	r0, #5
    1d7e:	d85a      	bhi.n	1e36 <vscan+0x33a>
    1d80:	f852 eb04 	ldr.w	lr, [r2], #4
    1d84:	3401      	adds	r4, #1
    1d86:	f8ce 5000 	str.w	r5, [lr]
    1d8a:	f106 0809 	add.w	r8, r6, #9
    1d8e:	f896 9000 	ldrb.w	r9, [r6]
    1d92:	4633      	mov	r3, r6
    1d94:	f1a9 0030 	sub.w	r0, r9, #48	; 0x30
    1d98:	b2c0      	uxtb	r0, r0
    1d9a:	2809      	cmp	r0, #9
    1d9c:	f106 0601 	add.w	r6, r6, #1
    1da0:	d96f      	bls.n	1e82 <vscan+0x386>
    1da2:	f029 0020 	bic.w	r0, r9, #32
    1da6:	3841      	subs	r0, #65	; 0x41
    1da8:	2805      	cmp	r0, #5
    1daa:	f63f aeb5 	bhi.w	1b18 <vscan+0x1c>
    1dae:	4546      	cmp	r6, r8
    1db0:	f43f aeb2 	beq.w	1b18 <vscan+0x1c>
    1db4:	f1a9 0361 	sub.w	r3, r9, #97	; 0x61
    1db8:	2b05      	cmp	r3, #5
    1dba:	bf94      	ite	ls
    1dbc:	f1a9 0057 	subls.w	r0, r9, #87	; 0x57
    1dc0:	f1a9 0037 	subhi.w	r0, r9, #55	; 0x37
    1dc4:	b2c0      	uxtb	r0, r0
    1dc6:	f8de 3000 	ldr.w	r3, [lr]
    1dca:	ea40 1003 	orr.w	r0, r0, r3, lsl #4
    1dce:	f8ce 0000 	str.w	r0, [lr]
    1dd2:	e7dc      	b.n	1d8e <vscan+0x292>
		    	    case 'd': scani (lword); break;
    1dd4:	2e00      	cmp	r6, #0
    1dd6:	d196      	bne.n	1d06 <vscan+0x20a>
    1dd8:	e6b1      	b.n	1b3e <vscan+0x42>
    1dda:	2000      	movs	r0, #0
    1ddc:	e7a6      	b.n	1d2c <vscan+0x230>
    1dde:	f8de 3000 	ldr.w	r3, [lr]
    1de2:	b2b6      	uxth	r6, r6
    1de4:	437b      	muls	r3, r7
    1de6:	1b9e      	subs	r6, r3, r6
    1de8:	f8ce 6000 	str.w	r6, [lr]
    1dec:	e7a3      	b.n	1d36 <vscan+0x23a>
		    	    case 'u': scanu (lword); break;
    1dee:	2800      	cmp	r0, #0
    1df0:	f43f aea5 	beq.w	1b3e <vscan+0x42>
    1df4:	7818      	ldrb	r0, [r3, #0]
    1df6:	461e      	mov	r6, r3
    1df8:	f1a0 0e30 	sub.w	lr, r0, #48	; 0x30
    1dfc:	f1be 0f09 	cmp.w	lr, #9
    1e00:	f103 0301 	add.w	r3, r3, #1
    1e04:	d8f3      	bhi.n	1dee <vscan+0x2f2>
    1e06:	f852 eb04 	ldr.w	lr, [r2], #4
    1e0a:	3401      	adds	r4, #1
    1e0c:	f8ce 5000 	str.w	r5, [lr]
    1e10:	7830      	ldrb	r0, [r6, #0]
    1e12:	4633      	mov	r3, r6
    1e14:	3830      	subs	r0, #48	; 0x30
    1e16:	fa5f f880 	uxtb.w	r8, r0
    1e1a:	f1b8 0f09 	cmp.w	r8, #9
    1e1e:	f106 0601 	add.w	r6, r6, #1
    1e22:	f63f ae79 	bhi.w	1b18 <vscan+0x1c>
    1e26:	f8de 3000 	ldr.w	r3, [lr]
    1e2a:	b280      	uxth	r0, r0
    1e2c:	fb07 0003 	mla	r0, r7, r3, r0
    1e30:	f8ce 0000 	str.w	r0, [lr]
    1e34:	e7ec      	b.n	1e10 <vscan+0x314>
		    	    case 'x': scanx (lword); break;
    1e36:	f1be 0f00 	cmp.w	lr, #0
    1e3a:	d193      	bne.n	1d64 <vscan+0x268>
    1e3c:	e67f      	b.n	1b3e <vscan+0x42>
			if ((c = *buf++) == '\0')
    1e3e:	f813 0b01 	ldrb.w	r0, [r3], #1
    1e42:	2800      	cmp	r0, #0
    1e44:	f43f ae7b 	beq.w	1b3e <vscan+0x42>
			sap = va_arg (ap, char*);
    1e48:	f852 6b04 	ldr.w	r6, [r2], #4
			nc++;
    1e4c:	3401      	adds	r4, #1
			*sap = c;
    1e4e:	7030      	strb	r0, [r6, #0]
			break;
    1e50:	e662      	b.n	1b18 <vscan+0x1c>
			while (isspace (*buf)) buf++;
    1e52:	fa2c fe0e 	lsr.w	lr, ip, lr
    1e56:	f01e 0f01 	tst.w	lr, #1
    1e5a:	f47f ae7a 	bne.w	1b52 <vscan+0x56>
    1e5e:	e687      	b.n	1b70 <vscan+0x74>
						*sap++ = *buf++;
    1e60:	f80e 3b01 	strb.w	r3, [lr], #1
    1e64:	e68a      	b.n	1b7c <vscan+0x80>
			while (isspace (*buf)) buf++;
    1e66:	fa2c f000 	lsr.w	r0, ip, r0
    1e6a:	07c0      	lsls	r0, r0, #31
    1e6c:	f53f ae95 	bmi.w	1b9a <vscan+0x9e>
    1e70:	e6a2      	b.n	1bb8 <vscan+0xbc>
		return 0;
    1e72:	4604      	mov	r4, r0
    1e74:	e663      	b.n	1b3e <vscan+0x42>
    1e76:	460c      	mov	r4, r1
    1e78:	e661      	b.n	1b3e <vscan+0x42>
		    case 'x': scanx (word); break;
    1e7a:	4546      	cmp	r6, r8
    1e7c:	f47f af31 	bne.w	1ce2 <vscan+0x1e6>
    1e80:	e64a      	b.n	1b18 <vscan+0x1c>
		    	    case 'x': scanx (lword); break;
    1e82:	4546      	cmp	r6, r8
    1e84:	d19f      	bne.n	1dc6 <vscan+0x2ca>
    1e86:	e647      	b.n	1b18 <vscan+0x1c>
    1e88:	00800013 	addeq	r0, r0, r3, lsl r0

00001e8c <NOROM_AONBatMonTemperatureGetDegC>:
    1e8c:	4b08      	ldr	r3, [pc, #32]	; (1eb0 <NOROM_AONBatMonTemperatureGetDegC+0x24>)
    1e8e:	6818      	ldr	r0, [r3, #0]
    1e90:	4b08      	ldr	r3, [pc, #32]	; (1eb4 <NOROM_AONBatMonTemperatureGetDegC+0x28>)
    1e92:	7819      	ldrb	r1, [r3, #0]
    1e94:	4b08      	ldr	r3, [pc, #32]	; (1eb8 <NOROM_AONBatMonTemperatureGetDegC+0x2c>)
    1e96:	681a      	ldr	r2, [r3, #0]
    1e98:	f340 0310 	sbfx	r3, r0, #0, #17
    1e9c:	f5a2 7240 	sub.w	r2, r2, #768	; 0x300
    1ea0:	b248      	sxtb	r0, r1
    1ea2:	4350      	muls	r0, r2
    1ea4:	eba3 1020 	sub.w	r0, r3, r0, asr #4
    1ea8:	3080      	adds	r0, #128	; 0x80
    1eaa:	1200      	asrs	r0, r0, #8
    1eac:	4770      	bx	lr
    1eae:	bf00      	nop
    1eb0:	40095030 	andmi	r5, r9, r0, lsr r0
    1eb4:	5000130c 	andpl	r1, r0, ip, lsl #6
    1eb8:	40095028 	andmi	r5, r9, r8, lsr #32

00001ebc <NOROM_AONRTCCurrent64BitValueGet>:
    1ebc:	4b03      	ldr	r3, [pc, #12]	; (1ecc <NOROM_AONRTCCurrent64BitValueGet+0x10>)
    1ebe:	4904      	ldr	r1, [pc, #16]	; (1ed0 <NOROM_AONRTCCurrent64BitValueGet+0x14>)
    1ec0:	681a      	ldr	r2, [r3, #0]
    1ec2:	6808      	ldr	r0, [r1, #0]
    1ec4:	6819      	ldr	r1, [r3, #0]
    1ec6:	4291      	cmp	r1, r2
    1ec8:	d1f8      	bne.n	1ebc <NOROM_AONRTCCurrent64BitValueGet>
    1eca:	4770      	bx	lr
    1ecc:	40092008 	andmi	r2, r9, r8
    1ed0:	4009200c 	andmi	r2, r9, ip

00001ed4 <NOROM_CPUcpsid>:
    1ed4:	f3ef 8010 	mrs	r0, PRIMASK
    1ed8:	b672      	cpsid	i
    1eda:	4770      	bx	lr

00001edc <NOROM_CPUcpsie>:
    1edc:	f3ef 8010 	mrs	r0, PRIMASK
    1ee0:	b662      	cpsie	i
    1ee2:	4770      	bx	lr

00001ee4 <TrimAfterColdResetWakeupFromShutDown>:
    1ee4:	b538      	push	{r3, r4, r5, lr}
    1ee6:	4605      	mov	r5, r0
    1ee8:	4b26      	ldr	r3, [pc, #152]	; (1f84 <TrimAfterColdResetWakeupFromShutDown+0xa0>)
    1eea:	2201      	movs	r2, #1
    1eec:	601a      	str	r2, [r3, #0]
    1eee:	4b26      	ldr	r3, [pc, #152]	; (1f88 <TrimAfterColdResetWakeupFromShutDown+0xa4>)
    1ef0:	681b      	ldr	r3, [r3, #0]
    1ef2:	2b00      	cmp	r3, #0
    1ef4:	d0fb      	beq.n	1eee <TrimAfterColdResetWakeupFromShutDown+0xa>
    1ef6:	4b25      	ldr	r3, [pc, #148]	; (1f8c <TrimAfterColdResetWakeupFromShutDown+0xa8>)
    1ef8:	22c0      	movs	r2, #192	; 0xc0
    1efa:	601a      	str	r2, [r3, #0]
    1efc:	4b24      	ldr	r3, [pc, #144]	; (1f90 <TrimAfterColdResetWakeupFromShutDown+0xac>)
    1efe:	681b      	ldr	r3, [r3, #0]
    1f00:	079b      	lsls	r3, r3, #30
    1f02:	bf5f      	itttt	pl
    1f04:	4b23      	ldrpl	r3, [pc, #140]	; (1f94 <TrimAfterColdResetWakeupFromShutDown+0xb0>)
    1f06:	4a24      	ldrpl	r2, [pc, #144]	; (1f98 <TrimAfterColdResetWakeupFromShutDown+0xb4>)
    1f08:	681b      	ldrpl	r3, [r3, #0]
    1f0a:	f3c3 4303 	ubfxpl	r3, r3, #16, #4
    1f0e:	bf5c      	itt	pl
    1f10:	f043 03f0 	orrpl.w	r3, r3, #240	; 0xf0
    1f14:	7013      	strbpl	r3, [r2, #0]
    1f16:	4b21      	ldr	r3, [pc, #132]	; (1f9c <TrimAfterColdResetWakeupFromShutDown+0xb8>)
    1f18:	2200      	movs	r2, #0
    1f1a:	601a      	str	r2, [r3, #0]
    1f1c:	4b20      	ldr	r3, [pc, #128]	; (1fa0 <TrimAfterColdResetWakeupFromShutDown+0xbc>)
    1f1e:	681c      	ldr	r4, [r3, #0]
    1f20:	4620      	mov	r0, r4
    1f22:	f000 f8d9 	bl	20d8 <NOROM_SetupAfterColdResetWakeupFromShutDownCfg1>
    1f26:	4628      	mov	r0, r5
    1f28:	4621      	mov	r1, r4
    1f2a:	f000 fa0d 	bl	2348 <NOROM_SetupAfterColdResetWakeupFromShutDownCfg2>
    1f2e:	f240 221d 	movw	r2, #541	; 0x21d
    1f32:	4b1c      	ldr	r3, [pc, #112]	; (1fa4 <TrimAfterColdResetWakeupFromShutDown+0xc0>)
    1f34:	681b      	ldr	r3, [r3, #0]
    1f36:	b29b      	uxth	r3, r3
    1f38:	4293      	cmp	r3, r2
    1f3a:	d814      	bhi.n	1f66 <TrimAfterColdResetWakeupFromShutDown+0x82>
    1f3c:	4a1a      	ldr	r2, [pc, #104]	; (1fa8 <TrimAfterColdResetWakeupFromShutDown+0xc4>)
    1f3e:	6813      	ldr	r3, [r2, #0]
    1f40:	6812      	ldr	r2, [r2, #0]
    1f42:	f3c3 6303 	ubfx	r3, r3, #24, #4
    1f46:	f3c2 4203 	ubfx	r2, r2, #16, #4
    1f4a:	b103      	cbz	r3, 1f4e <TrimAfterColdResetWakeupFromShutDown+0x6a>
    1f4c:	3b01      	subs	r3, #1
    1f4e:	1f91      	subs	r1, r2, #6
    1f50:	2901      	cmp	r1, #1
    1f52:	bf86      	itte	hi
    1f54:	3202      	addhi	r2, #2
    1f56:	f002 020f 	andhi.w	r2, r2, #15
    1f5a:	2207      	movls	r2, #7
    1f5c:	ea43 1302 	orr.w	r3, r3, r2, lsl #4
    1f60:	4a12      	ldr	r2, [pc, #72]	; (1fac <TrimAfterColdResetWakeupFromShutDown+0xc8>)
    1f62:	b2db      	uxtb	r3, r3
    1f64:	7013      	strb	r3, [r2, #0]
    1f66:	4620      	mov	r0, r4
    1f68:	f000 fabc 	bl	24e4 <NOROM_SetupAfterColdResetWakeupFromShutDownCfg3>
    1f6c:	4b10      	ldr	r3, [pc, #64]	; (1fb0 <TrimAfterColdResetWakeupFromShutDown+0xcc>)
    1f6e:	2002      	movs	r0, #2
    1f70:	681b      	ldr	r3, [r3, #0]
    1f72:	68db      	ldr	r3, [r3, #12]
    1f74:	4798      	blx	r3
    1f76:	4b05      	ldr	r3, [pc, #20]	; (1f8c <TrimAfterColdResetWakeupFromShutDown+0xa8>)
    1f78:	2240      	movs	r2, #64	; 0x40
    1f7a:	601a      	str	r2, [r3, #0]
    1f7c:	4b0d      	ldr	r3, [pc, #52]	; (1fb4 <TrimAfterColdResetWakeupFromShutDown+0xd0>)
    1f7e:	2201      	movs	r2, #1
    1f80:	601a      	str	r2, [r3, #0]
    1f82:	bd38      	pop	{r3, r4, r5, pc}
    1f84:	40091010 	andmi	r1, r9, r0, lsl r0
    1f88:	43220294 			; <UNDEFINED> instruction: 0x43220294
    1f8c:	400c6000 	andmi	r6, ip, r0
    1f90:	50003fb0 			; <UNDEFINED> instruction: 0x50003fb0
    1f94:	50003fac 	andpl	r3, r0, ip, lsr #31
    1f98:	40086256 	andmi	r6, r8, r6, asr r2
    1f9c:	40091040 	andmi	r1, r9, r0, asr #32
    1fa0:	50003fb4 			; <UNDEFINED> instruction: 0x50003fb4
    1fa4:	50001314 	andpl	r1, r0, r4, lsl r3
    1fa8:	500012bc 			; <UNDEFINED> instruction: 0x500012bc
    1fac:	40086002 	andmi	r6, r8, r2
    1fb0:	100001a0 	andne	r0, r0, r0, lsr #3
    1fb4:	42600494 	rsbmi	r0, r0, #148, 8	; 0x94000000

00001fb8 <NOROM_SetupTrimDevice>:
    1fb8:	b510      	push	{r4, lr}
    1fba:	4b1f      	ldr	r3, [pc, #124]	; (2038 <NOROM_SetupTrimDevice+0x80>)
    1fbc:	681c      	ldr	r4, [r3, #0]
    1fbe:	1c63      	adds	r3, r4, #1
    1fc0:	bf08      	it	eq
    1fc2:	2400      	moveq	r4, #0
    1fc4:	f000 fcde 	bl	2984 <NOROM_ThisCodeIsBuiltForCC13xxHwRev20AndLater_HaltIfViolated>
    1fc8:	4b1c      	ldr	r3, [pc, #112]	; (203c <NOROM_SetupTrimDevice+0x84>)
    1fca:	2200      	movs	r2, #0
    1fcc:	601a      	str	r2, [r3, #0]
    1fce:	4a1c      	ldr	r2, [pc, #112]	; (2040 <NOROM_SetupTrimDevice+0x88>)
    1fd0:	2301      	movs	r3, #1
    1fd2:	6013      	str	r3, [r2, #0]
    1fd4:	4a1b      	ldr	r2, [pc, #108]	; (2044 <NOROM_SetupTrimDevice+0x8c>)
    1fd6:	6013      	str	r3, [r2, #0]
    1fd8:	f000 fa3e 	bl	2458 <NOROM_SetupSetCacheModeAccordingToCcfgSetting>
    1fdc:	4b1a      	ldr	r3, [pc, #104]	; (2048 <NOROM_SetupTrimDevice+0x90>)
    1fde:	681b      	ldr	r3, [r3, #0]
    1fe0:	b123      	cbz	r3, 1fec <NOROM_SetupTrimDevice+0x34>
    1fe2:	4b1a      	ldr	r3, [pc, #104]	; (204c <NOROM_SetupTrimDevice+0x94>)
    1fe4:	4620      	mov	r0, r4
    1fe6:	681b      	ldr	r3, [r3, #0]
    1fe8:	f7ff ff7c 	bl	1ee4 <TrimAfterColdResetWakeupFromShutDown>
    1fec:	4b18      	ldr	r3, [pc, #96]	; (2050 <NOROM_SetupTrimDevice+0x98>)
    1fee:	2200      	movs	r2, #0
    1ff0:	601a      	str	r2, [r3, #0]
    1ff2:	4a18      	ldr	r2, [pc, #96]	; (2054 <NOROM_SetupTrimDevice+0x9c>)
    1ff4:	6813      	ldr	r3, [r2, #0]
    1ff6:	f023 637f 	bic.w	r3, r3, #267386880	; 0xff00000
    1ffa:	f423 2370 	bic.w	r3, r3, #983040	; 0xf0000
    1ffe:	f043 739c 	orr.w	r3, r3, #20447232	; 0x1380000
    2002:	f443 3380 	orr.w	r3, r3, #65536	; 0x10000
    2006:	6013      	str	r3, [r2, #0]
    2008:	f502 22bb 	add.w	r2, r2, #382976	; 0x5d800
    200c:	f202 72bc 	addw	r2, r2, #1980	; 0x7bc
    2010:	6813      	ldr	r3, [r2, #0]
    2012:	f3c3 3301 	ubfx	r3, r3, #12, #2
    2016:	2b01      	cmp	r3, #1
    2018:	bf01      	itttt	eq
    201a:	6813      	ldreq	r3, [r2, #0]
    201c:	f023 7340 	biceq.w	r3, r3, #50331648	; 0x3000000
    2020:	f423 3340 	biceq.w	r3, r3, #196608	; 0x30000
    2024:	f443 3100 	orreq.w	r1, r3, #131072	; 0x20000
    2028:	bf04      	itt	eq
    202a:	6011      	streq	r1, [r2, #0]
    202c:	6013      	streq	r3, [r2, #0]
    202e:	4b0a      	ldr	r3, [pc, #40]	; (2058 <NOROM_SetupTrimDevice+0xa0>)
    2030:	681b      	ldr	r3, [r3, #0]
    2032:	2b00      	cmp	r3, #0
    2034:	d1fb      	bne.n	202e <NOROM_SetupTrimDevice+0x76>
    2036:	bd10      	pop	{r4, pc}
    2038:	5000131c 	andpl	r1, r0, ip, lsl r3
    203c:	42600484 	rsbmi	r0, r0, #132, 8	; 0x84000000
    2040:	400c605c 	andmi	r6, ip, ip, asr r0
    2044:	43042208 	movwmi	r2, #16904	; 0x4208
    2048:	43280180 			; <UNDEFINED> instruction: 0x43280180
    204c:	43200100 	nopmi	{0}	; <UNPREDICTABLE>
    2050:	4008218c 	andmi	r2, r8, ip, lsl #3
    2054:	40032048 	andmi	r2, r3, r8, asr #32
    2058:	4268000c 	rsbmi	r0, r8, #12

0000205c <NOROM_SetupSetVddrLevel>:
    205c:	b530      	push	{r4, r5, lr}
    205e:	4b19      	ldr	r3, [pc, #100]	; (20c4 <NOROM_SetupSetVddrLevel+0x68>)
    2060:	681a      	ldr	r2, [r3, #0]
    2062:	4b19      	ldr	r3, [pc, #100]	; (20c8 <NOROM_SetupSetVddrLevel+0x6c>)
    2064:	f3c2 6204 	ubfx	r2, r2, #24, #5
    2068:	781b      	ldrb	r3, [r3, #0]
    206a:	2a15      	cmp	r2, #21
    206c:	f003 031f 	and.w	r3, r3, #31
    2070:	bf88      	it	hi
    2072:	3a20      	subhi	r2, #32
    2074:	2b15      	cmp	r3, #21
    2076:	bf88      	it	hi
    2078:	3b20      	subhi	r3, #32
    207a:	4293      	cmp	r3, r2
    207c:	d020      	beq.n	20c0 <NOROM_SetupSetVddrLevel+0x64>
    207e:	4913      	ldr	r1, [pc, #76]	; (20cc <NOROM_SetupSetVddrLevel+0x70>)
    2080:	2000      	movs	r0, #0
    2082:	6008      	str	r0, [r1, #0]
    2084:	4608      	mov	r0, r1
    2086:	1ad1      	subs	r1, r2, r3
    2088:	2902      	cmp	r1, #2
    208a:	dc05      	bgt.n	2098 <NOROM_SetupSetVddrLevel+0x3c>
    208c:	f06f 0401 	mvn.w	r4, #1
    2090:	42a1      	cmp	r1, r4
    2092:	bfb8      	it	lt
    2094:	4621      	movlt	r1, r4
    2096:	e000      	b.n	209a <NOROM_SetupSetVddrLevel+0x3e>
    2098:	2102      	movs	r1, #2
    209a:	440b      	add	r3, r1
    209c:	490c      	ldr	r1, [pc, #48]	; (20d0 <NOROM_SetupSetVddrLevel+0x74>)
    209e:	4d0d      	ldr	r5, [pc, #52]	; (20d4 <NOROM_SetupSetVddrLevel+0x78>)
    20a0:	680c      	ldr	r4, [r1, #0]
    20a2:	f003 041f 	and.w	r4, r3, #31
    20a6:	f444 54f8 	orr.w	r4, r4, #7936	; 0x1f00
    20aa:	802c      	strh	r4, [r5, #0]
    20ac:	4293      	cmp	r3, r2
    20ae:	f04f 0401 	mov.w	r4, #1
    20b2:	600c      	str	r4, [r1, #0]
    20b4:	d1e7      	bne.n	2086 <NOROM_SetupSetVddrLevel+0x2a>
    20b6:	680b      	ldr	r3, [r1, #0]
    20b8:	600c      	str	r4, [r1, #0]
    20ba:	680b      	ldr	r3, [r1, #0]
    20bc:	6004      	str	r4, [r0, #0]
    20be:	680b      	ldr	r3, [r1, #0]
    20c0:	bd30      	pop	{r4, r5, pc}
    20c2:	bf00      	nop
    20c4:	50001388 	andpl	r1, r0, r8, lsl #7
    20c8:	40086206 	andmi	r6, r8, r6, lsl #4
    20cc:	43200098 			; <UNDEFINED> instruction: 0x43200098
    20d0:	4009202c 	andmi	r2, r9, ip, lsr #32
    20d4:	4008626c 	andmi	r6, r8, ip, ror #4

000020d8 <NOROM_SetupAfterColdResetWakeupFromShutDownCfg1>:
    20d8:	f000 7340 	and.w	r3, r0, #50331648	; 0x3000000
    20dc:	f1b3 7f80 	cmp.w	r3, #16777216	; 0x1000000
    20e0:	b510      	push	{r4, lr}
    20e2:	4604      	mov	r4, r0
    20e4:	d10f      	bne.n	2106 <NOROM_SetupAfterColdResetWakeupFromShutDownCfg1+0x2e>
    20e6:	f64f 01d8 	movw	r1, #63704	; 0xf8d8
    20ea:	4a1e      	ldr	r2, [pc, #120]	; (2164 <NOROM_SetupAfterColdResetWakeupFromShutDownCfg1+0x8c>)
    20ec:	2380      	movs	r3, #128	; 0x80
    20ee:	7013      	strb	r3, [r2, #0]
    20f0:	f8a2 1041 	strh.w	r1, [r2, #65]	; 0x41
    20f4:	f802 3c10 	strb.w	r3, [r2, #-16]
    20f8:	f7ff ffb0 	bl	205c <NOROM_SetupSetVddrLevel>
    20fc:	4b1a      	ldr	r3, [pc, #104]	; (2168 <NOROM_SetupAfterColdResetWakeupFromShutDownCfg1+0x90>)
    20fe:	681b      	ldr	r3, [r3, #0]
    2100:	f3c3 2304 	ubfx	r3, r3, #8, #5
    2104:	e003      	b.n	210e <NOROM_SetupAfterColdResetWakeupFromShutDownCfg1+0x36>
    2106:	4b19      	ldr	r3, [pc, #100]	; (216c <NOROM_SetupAfterColdResetWakeupFromShutDownCfg1+0x94>)
    2108:	681b      	ldr	r3, [r3, #0]
    210a:	f3c3 6304 	ubfx	r3, r3, #24, #5
    210e:	2b15      	cmp	r3, #21
    2110:	bf88      	it	hi
    2112:	3b20      	subhi	r3, #32
    2114:	eb03 7324 	add.w	r3, r3, r4, asr #28
    2118:	3301      	adds	r3, #1
    211a:	2b15      	cmp	r3, #21
    211c:	dc05      	bgt.n	212a <NOROM_SetupAfterColdResetWakeupFromShutDownCfg1+0x52>
    211e:	f06f 0209 	mvn.w	r2, #9
    2122:	4293      	cmp	r3, r2
    2124:	bfb8      	it	lt
    2126:	4613      	movlt	r3, r2
    2128:	e000      	b.n	212c <NOROM_SetupAfterColdResetWakeupFromShutDownCfg1+0x54>
    212a:	2315      	movs	r3, #21
    212c:	4a10      	ldr	r2, [pc, #64]	; (2170 <NOROM_SetupAfterColdResetWakeupFromShutDownCfg1+0x98>)
    212e:	f003 031f 	and.w	r3, r3, #31
    2132:	f443 53f8 	orr.w	r3, r3, #7936	; 0x1f00
    2136:	8013      	strh	r3, [r2, #0]
    2138:	4b0e      	ldr	r3, [pc, #56]	; (2174 <NOROM_SetupAfterColdResetWakeupFromShutDownCfg1+0x9c>)
    213a:	681b      	ldr	r3, [r3, #0]
    213c:	f013 0302 	ands.w	r3, r3, #2
    2140:	bf0a      	itet	eq
    2142:	4a0d      	ldreq	r2, [pc, #52]	; (2178 <NOROM_SetupAfterColdResetWakeupFromShutDownCfg1+0xa0>)
    2144:	f044 6440 	orrne.w	r4, r4, #201326592	; 0xc000000
    2148:	6013      	streq	r3, [r2, #0]
    214a:	f3c4 63c0 	ubfx	r3, r4, #27, #1
    214e:	4a0b      	ldr	r2, [pc, #44]	; (217c <NOROM_SetupAfterColdResetWakeupFromShutDownCfg1+0xa4>)
    2150:	f083 0301 	eor.w	r3, r3, #1
    2154:	6013      	str	r3, [r2, #0]
    2156:	f3c4 6480 	ubfx	r4, r4, #26, #1
    215a:	4b09      	ldr	r3, [pc, #36]	; (2180 <NOROM_SetupAfterColdResetWakeupFromShutDownCfg1+0xa8>)
    215c:	f084 0401 	eor.w	r4, r4, #1
    2160:	601c      	str	r4, [r3, #0]
    2162:	bd10      	pop	{r4, pc}
    2164:	40086225 	andmi	r6, r8, r5, lsr #4
    2168:	50001388 	andpl	r1, r0, r8, lsl #7
    216c:	500012b8 			; <UNDEFINED> instruction: 0x500012b8
    2170:	4008626e 	andmi	r6, r8, lr, ror #4
    2174:	40090000 	andmi	r0, r9, r0
    2178:	432a0494 			; <UNDEFINED> instruction: 0x432a0494
    217c:	43200000 	nopmi	{0}	; <UNPREDICTABLE>
    2180:	43200008 			; <UNDEFINED> instruction: 0x43200008

00002184 <NOROM_SetupGetTrimForAnabypassValue1>:
    2184:	4b15      	ldr	r3, [pc, #84]	; (21dc <NOROM_SetupGetTrimForAnabypassValue1+0x58>)
    2186:	0381      	lsls	r1, r0, #14
    2188:	681b      	ldr	r3, [r3, #0]
    218a:	f3c3 6283 	ubfx	r2, r3, #26, #4
    218e:	f3c3 238f 	ubfx	r3, r3, #10, #16
    2192:	d41f      	bmi.n	21d4 <NOROM_SetupGetTrimForAnabypassValue1+0x50>
    2194:	f340 2007 	sbfx	r0, r0, #8, #8
    2198:	2800      	cmp	r0, #0
    219a:	da19      	bge.n	21d0 <NOROM_SetupGetTrimForAnabypassValue1+0x4c>
    219c:	085b      	lsrs	r3, r3, #1
    219e:	d105      	bne.n	21ac <NOROM_SetupGetTrimForAnabypassValue1+0x28>
    21a0:	0852      	lsrs	r2, r2, #1
    21a2:	bf06      	itte	eq
    21a4:	2301      	moveq	r3, #1
    21a6:	461a      	moveq	r2, r3
    21a8:	f64f 73ff 	movwne	r3, #65535	; 0xffff
    21ac:	3001      	adds	r0, #1
    21ae:	e7f3      	b.n	2198 <NOROM_SetupGetTrimForAnabypassValue1+0x14>
    21b0:	005b      	lsls	r3, r3, #1
    21b2:	f043 0301 	orr.w	r3, r3, #1
    21b6:	f5b3 3f80 	cmp.w	r3, #65536	; 0x10000
    21ba:	d308      	bcc.n	21ce <NOROM_SetupGetTrimForAnabypassValue1+0x4a>
    21bc:	0052      	lsls	r2, r2, #1
    21be:	f042 0201 	orr.w	r2, r2, #1
    21c2:	2a0f      	cmp	r2, #15
    21c4:	bf86      	itte	hi
    21c6:	f64f 73ff 	movwhi	r3, #65535	; 0xffff
    21ca:	220f      	movhi	r2, #15
    21cc:	2301      	movls	r3, #1
    21ce:	3801      	subs	r0, #1
    21d0:	2800      	cmp	r0, #0
    21d2:	d1ed      	bne.n	21b0 <NOROM_SetupGetTrimForAnabypassValue1+0x2c>
    21d4:	ea43 4002 	orr.w	r0, r3, r2, lsl #16
    21d8:	4770      	bx	lr
    21da:	bf00      	nop
    21dc:	50001350 	andpl	r1, r0, r0, asr r3

000021e0 <NOROM_SetupGetTrimForRcOscLfRtuneCtuneTrim>:
    21e0:	4a04      	ldr	r2, [pc, #16]	; (21f4 <NOROM_SetupGetTrimForRcOscLfRtuneCtuneTrim+0x14>)
    21e2:	6813      	ldr	r3, [r2, #0]
    21e4:	6810      	ldr	r0, [r2, #0]
    21e6:	f3c3 0387 	ubfx	r3, r3, #2, #8
    21ea:	f000 0003 	and.w	r0, r0, #3
    21ee:	ea43 2000 	orr.w	r0, r3, r0, lsl #8
    21f2:	4770      	bx	lr
    21f4:	50001350 	andpl	r1, r0, r0, asr r3

000021f8 <NOROM_SetupGetTrimForAmpcompTh2>:
    21f8:	4b02      	ldr	r3, [pc, #8]	; (2204 <NOROM_SetupGetTrimForAmpcompTh2+0xc>)
    21fa:	6818      	ldr	r0, [r3, #0]
    21fc:	f000 30fc 	and.w	r0, r0, #4244438268	; 0xfcfcfcfc
    2200:	4770      	bx	lr
    2202:	bf00      	nop
    2204:	50001374 	andpl	r1, r0, r4, ror r3

00002208 <NOROM_SetupGetTrimForAmpcompTh1>:
    2208:	4b03      	ldr	r3, [pc, #12]	; (2218 <NOROM_SetupGetTrimForAmpcompTh1+0x10>)
    220a:	6818      	ldr	r0, [r3, #0]
    220c:	f020 407f 	bic.w	r0, r0, #4278190080	; 0xff000000
    2210:	f420 3040 	bic.w	r0, r0, #196608	; 0x30000
    2214:	4770      	bx	lr
    2216:	bf00      	nop
    2218:	50001370 	andpl	r1, r0, r0, ror r3

0000221c <NOROM_SetupGetTrimForAmpcompCtrl>:
    221c:	b570      	push	{r4, r5, r6, lr}
    221e:	4b15      	ldr	r3, [pc, #84]	; (2274 <NOROM_SetupGetTrimForAmpcompCtrl+0x58>)
    2220:	4915      	ldr	r1, [pc, #84]	; (2278 <NOROM_SetupGetTrimForAmpcompCtrl+0x5c>)
    2222:	681c      	ldr	r4, [r3, #0]
    2224:	6809      	ldr	r1, [r1, #0]
    2226:	f3c4 5203 	ubfx	r2, r4, #20, #4
    222a:	f011 0501 	ands.w	r5, r1, #1
    222e:	f3c4 4303 	ubfx	r3, r4, #16, #4
    2232:	d113      	bne.n	225c <NOROM_SetupGetTrimForAmpcompCtrl+0x40>
    2234:	4911      	ldr	r1, [pc, #68]	; (227c <NOROM_SetupGetTrimForAmpcompCtrl+0x60>)
    2236:	6809      	ldr	r1, [r1, #0]
    2238:	f341 2603 	sbfx	r6, r1, #8, #4
    223c:	18b2      	adds	r2, r6, r2
    223e:	d403      	bmi.n	2248 <NOROM_SetupGetTrimForAmpcompCtrl+0x2c>
    2240:	2a0f      	cmp	r2, #15
    2242:	bfa8      	it	ge
    2244:	220f      	movge	r2, #15
    2246:	e000      	b.n	224a <NOROM_SetupGetTrimForAmpcompCtrl+0x2e>
    2248:	462a      	mov	r2, r5
    224a:	f341 3103 	sbfx	r1, r1, #12, #4
    224e:	18cb      	adds	r3, r1, r3
    2250:	d403      	bmi.n	225a <NOROM_SetupGetTrimForAmpcompCtrl+0x3e>
    2252:	2b0f      	cmp	r3, #15
    2254:	bfa8      	it	ge
    2256:	230f      	movge	r3, #15
    2258:	e000      	b.n	225c <NOROM_SetupGetTrimForAmpcompCtrl+0x40>
    225a:	2300      	movs	r3, #0
    225c:	b2a1      	uxth	r1, r4
    225e:	2821      	cmp	r0, #33	; 0x21
    2260:	ea41 5202 	orr.w	r2, r1, r2, lsl #20
    2264:	ea42 4303 	orr.w	r3, r2, r3, lsl #16
    2268:	bf84      	itt	hi
    226a:	f004 4480 	andhi.w	r4, r4, #1073741824	; 0x40000000
    226e:	4323      	orrhi	r3, r4
    2270:	4618      	mov	r0, r3
    2272:	bd70      	pop	{r4, r5, r6, pc}
    2274:	50001378 	andpl	r1, r0, r8, ror r3
    2278:	50003fb0 			; <UNDEFINED> instruction: 0x50003fb0
    227c:	50003fac 	andpl	r3, r0, ip, lsr #31

00002280 <NOROM_SetupGetTrimForDblrLoopFilterResetVoltage>:
    2280:	281f      	cmp	r0, #31
    2282:	bf83      	ittte	hi
    2284:	4b02      	ldrhi	r3, [pc, #8]	; (2290 <NOROM_SetupGetTrimForDblrLoopFilterResetVoltage+0x10>)
    2286:	6818      	ldrhi	r0, [r3, #0]
    2288:	f3c0 5001 	ubfxhi	r0, r0, #20, #2
    228c:	2000      	movls	r0, #0
    228e:	4770      	bx	lr
    2290:	50001398 	mulpl	r0, r8, r3

00002294 <NOROM_SetupGetTrimForAdcShModeEn>:
    2294:	2821      	cmp	r0, #33	; 0x21
    2296:	bf83      	ittte	hi
    2298:	4b02      	ldrhi	r3, [pc, #8]	; (22a4 <NOROM_SetupGetTrimForAdcShModeEn+0x10>)
    229a:	6818      	ldrhi	r0, [r3, #0]
    229c:	f3c0 7000 	ubfxhi	r0, r0, #28, #1
    22a0:	2001      	movls	r0, #1
    22a2:	4770      	bx	lr
    22a4:	5000138c 	andpl	r1, r0, ip, lsl #7

000022a8 <NOROM_SetupGetTrimForAdcShVbufEn>:
    22a8:	2821      	cmp	r0, #33	; 0x21
    22aa:	bf83      	ittte	hi
    22ac:	4b02      	ldrhi	r3, [pc, #8]	; (22b8 <NOROM_SetupGetTrimForAdcShVbufEn+0x10>)
    22ae:	6818      	ldrhi	r0, [r3, #0]
    22b0:	f3c0 7040 	ubfxhi	r0, r0, #29, #1
    22b4:	2001      	movls	r0, #1
    22b6:	4770      	bx	lr
    22b8:	5000138c 	andpl	r1, r0, ip, lsl #7

000022bc <NOROM_SetupGetTrimForXoscHfCtl>:
    22bc:	281f      	cmp	r0, #31
    22be:	bf81      	itttt	hi
    22c0:	4b07      	ldrhi	r3, [pc, #28]	; (22e0 <NOROM_SetupGetTrimForXoscHfCtl+0x24>)
    22c2:	681b      	ldrhi	r3, [r3, #0]
    22c4:	f3c3 6002 	ubfxhi	r0, r3, #24, #3
    22c8:	0080      	lslhi	r0, r0, #2
    22ca:	bf81      	itttt	hi
    22cc:	f3c3 62c1 	ubfxhi	r2, r3, #27, #2
    22d0:	ea40 2002 	orrhi.w	r0, r0, r2, lsl #8
    22d4:	f3c3 5381 	ubfxhi	r3, r3, #22, #2
    22d8:	4318      	orrhi	r0, r3
    22da:	bf98      	it	ls
    22dc:	2000      	movls	r0, #0
    22de:	4770      	bx	lr
    22e0:	50001398 	mulpl	r0, r8, r3

000022e4 <NOROM_SetupGetTrimForXoscHfFastStart>:
    22e4:	4b02      	ldr	r3, [pc, #8]	; (22f0 <NOROM_SetupGetTrimForXoscHfFastStart+0xc>)
    22e6:	6818      	ldr	r0, [r3, #0]
    22e8:	f3c0 40c1 	ubfx	r0, r0, #19, #2
    22ec:	4770      	bx	lr
    22ee:	bf00      	nop
    22f0:	5000138c 	andpl	r1, r0, ip, lsl #7

000022f4 <NOROM_SetupGetTrimForRadcExtCfg>:
    22f4:	281f      	cmp	r0, #31
    22f6:	bf81      	itttt	hi
    22f8:	4b07      	ldrhi	r3, [pc, #28]	; (2318 <NOROM_SetupGetTrimForRadcExtCfg+0x24>)
    22fa:	681b      	ldrhi	r3, [r3, #0]
    22fc:	f3c3 1005 	ubfxhi	r0, r3, #4, #6
    2300:	f3c3 2289 	ubfxhi	r2, r3, #10, #10
    2304:	bf81      	itttt	hi
    2306:	0400      	lslhi	r0, r0, #16
    2308:	031b      	lslhi	r3, r3, #12
    230a:	ea40 5082 	orrhi.w	r0, r0, r2, lsl #22
    230e:	b29b      	uxthhi	r3, r3
    2310:	bf8c      	ite	hi
    2312:	4318      	orrhi	r0, r3
    2314:	4801      	ldrls	r0, [pc, #4]	; (231c <NOROM_SetupGetTrimForRadcExtCfg+0x28>)
    2316:	4770      	bx	lr
    2318:	50001398 	mulpl	r0, r8, r3
    231c:	403f8000 	eorsmi	r8, pc, r0

00002320 <NOROM_SetupGetTrimForRcOscLfIBiasTrim>:
    2320:	2821      	cmp	r0, #33	; 0x21
    2322:	bf83      	ittte	hi
    2324:	4b02      	ldrhi	r3, [pc, #8]	; (2330 <NOROM_SetupGetTrimForRcOscLfIBiasTrim+0x10>)
    2326:	6818      	ldrhi	r0, [r3, #0]
    2328:	f3c0 60c0 	ubfxhi	r0, r0, #27, #1
    232c:	2000      	movls	r0, #0
    232e:	4770      	bx	lr
    2330:	5000138c 	andpl	r1, r0, ip, lsl #7

00002334 <NOROM_SetupGetTrimForXoscLfRegulatorAndCmirrwrRatio>:
    2334:	2821      	cmp	r0, #33	; 0x21
    2336:	bf83      	ittte	hi
    2338:	4b02      	ldrhi	r3, [pc, #8]	; (2344 <NOROM_SetupGetTrimForXoscLfRegulatorAndCmirrwrRatio+0x10>)
    233a:	6818      	ldrhi	r0, [r3, #0]
    233c:	f3c0 5045 	ubfxhi	r0, r0, #21, #6
    2340:	2000      	movls	r0, #0
    2342:	4770      	bx	lr
    2344:	5000138c 	andpl	r1, r0, ip, lsl #7

00002348 <NOROM_SetupAfterColdResetWakeupFromShutDownCfg2>:
    2348:	b573      	push	{r0, r1, r4, r5, r6, lr}
    234a:	4605      	mov	r5, r0
    234c:	4608      	mov	r0, r1
    234e:	f7ff ff19 	bl	2184 <NOROM_SetupGetTrimForAnabypassValue1>
    2352:	4c39      	ldr	r4, [pc, #228]	; (2438 <NOROM_SetupAfterColdResetWakeupFromShutDownCfg2+0xf0>)
    2354:	4602      	mov	r2, r0
    2356:	2118      	movs	r1, #24
    2358:	4620      	mov	r0, r4
    235a:	f000 fb33 	bl	29c4 <NOROM_DDI32RegWrite>
    235e:	f7ff ff3f 	bl	21e0 <NOROM_SetupGetTrimForRcOscLfRtuneCtuneTrim>
    2362:	4b36      	ldr	r3, [pc, #216]	; (243c <NOROM_SetupAfterColdResetWakeupFromShutDownCfg2+0xf4>)
    2364:	b280      	uxth	r0, r0
    2366:	681b      	ldr	r3, [r3, #0]
    2368:	9000      	str	r0, [sp, #0]
    236a:	685e      	ldr	r6, [r3, #4]
    236c:	4620      	mov	r0, r4
    236e:	212c      	movs	r1, #44	; 0x2c
    2370:	f240 32ff 	movw	r2, #1023	; 0x3ff
    2374:	2300      	movs	r3, #0
    2376:	47b0      	blx	r6
    2378:	4b31      	ldr	r3, [pc, #196]	; (2440 <NOROM_SetupAfterColdResetWakeupFromShutDownCfg2+0xf8>)
    237a:	4620      	mov	r0, r4
    237c:	681a      	ldr	r2, [r3, #0]
    237e:	211c      	movs	r1, #28
    2380:	f3c2 020d 	ubfx	r2, r2, #0, #14
    2384:	f000 fb1e 	bl	29c4 <NOROM_DDI32RegWrite>
    2388:	f7ff ff36 	bl	21f8 <NOROM_SetupGetTrimForAmpcompTh2>
    238c:	2114      	movs	r1, #20
    238e:	4602      	mov	r2, r0
    2390:	4620      	mov	r0, r4
    2392:	f000 fb17 	bl	29c4 <NOROM_DDI32RegWrite>
    2396:	f7ff ff37 	bl	2208 <NOROM_SetupGetTrimForAmpcompTh1>
    239a:	2110      	movs	r1, #16
    239c:	4602      	mov	r2, r0
    239e:	4620      	mov	r0, r4
    23a0:	f000 fb10 	bl	29c4 <NOROM_DDI32RegWrite>
    23a4:	4628      	mov	r0, r5
    23a6:	f7ff ff39 	bl	221c <NOROM_SetupGetTrimForAmpcompCtrl>
    23aa:	210c      	movs	r1, #12
    23ac:	4602      	mov	r2, r0
    23ae:	4620      	mov	r0, r4
    23b0:	f000 fb08 	bl	29c4 <NOROM_DDI32RegWrite>
    23b4:	4628      	mov	r0, r5
    23b6:	f7ff ff6d 	bl	2294 <NOROM_SetupGetTrimForAdcShModeEn>
    23ba:	0040      	lsls	r0, r0, #1
    23bc:	4e21      	ldr	r6, [pc, #132]	; (2444 <NOROM_SetupAfterColdResetWakeupFromShutDownCfg2+0xfc>)
    23be:	f040 0020 	orr.w	r0, r0, #32
    23c2:	b2c0      	uxtb	r0, r0
    23c4:	7030      	strb	r0, [r6, #0]
    23c6:	4628      	mov	r0, r5
    23c8:	f7ff ff6e 	bl	22a8 <NOROM_SetupGetTrimForAdcShVbufEn>
    23cc:	f040 0010 	orr.w	r0, r0, #16
    23d0:	b2c0      	uxtb	r0, r0
    23d2:	7030      	strb	r0, [r6, #0]
    23d4:	4628      	mov	r0, r5
    23d6:	f7ff ff71 	bl	22bc <NOROM_SetupGetTrimForXoscHfCtl>
    23da:	2128      	movs	r1, #40	; 0x28
    23dc:	4602      	mov	r2, r0
    23de:	4620      	mov	r0, r4
    23e0:	f000 faf0 	bl	29c4 <NOROM_DDI32RegWrite>
    23e4:	4628      	mov	r0, r5
    23e6:	f7ff ff4b 	bl	2280 <NOROM_SetupGetTrimForDblrLoopFilterResetVoltage>
    23ea:	0040      	lsls	r0, r0, #1
    23ec:	4b16      	ldr	r3, [pc, #88]	; (2448 <NOROM_SetupAfterColdResetWakeupFromShutDownCfg2+0x100>)
    23ee:	f040 0060 	orr.w	r0, r0, #96	; 0x60
    23f2:	b2c0      	uxtb	r0, r0
    23f4:	7018      	strb	r0, [r3, #0]
    23f6:	4628      	mov	r0, r5
    23f8:	f7ff ff92 	bl	2320 <NOROM_SetupGetTrimForRcOscLfIBiasTrim>
    23fc:	00c0      	lsls	r0, r0, #3
    23fe:	4b13      	ldr	r3, [pc, #76]	; (244c <NOROM_SetupAfterColdResetWakeupFromShutDownCfg2+0x104>)
    2400:	f060 007f 	orn	r0, r0, #127	; 0x7f
    2404:	b2c0      	uxtb	r0, r0
    2406:	7018      	strb	r0, [r3, #0]
    2408:	4628      	mov	r0, r5
    240a:	f7ff ff93 	bl	2334 <NOROM_SetupGetTrimForXoscLfRegulatorAndCmirrwrRatio>
    240e:	ea6f 6000 	mvn.w	r0, r0, lsl #24
    2412:	ea6f 5090 	mvn.w	r0, r0, lsr #22
    2416:	4b0e      	ldr	r3, [pc, #56]	; (2450 <NOROM_SetupAfterColdResetWakeupFromShutDownCfg2+0x108>)
    2418:	b280      	uxth	r0, r0
    241a:	8018      	strh	r0, [r3, #0]
    241c:	4628      	mov	r0, r5
    241e:	f7ff ff69 	bl	22f4 <NOROM_SetupGetTrimForRadcExtCfg>
    2422:	2108      	movs	r1, #8
    2424:	4602      	mov	r2, r0
    2426:	4620      	mov	r0, r4
    2428:	f000 facc 	bl	29c4 <NOROM_DDI32RegWrite>
    242c:	4b09      	ldr	r3, [pc, #36]	; (2454 <NOROM_SetupAfterColdResetWakeupFromShutDownCfg2+0x10c>)
    242e:	f44f 0280 	mov.w	r2, #4194304	; 0x400000
    2432:	601a      	str	r2, [r3, #0]
    2434:	b002      	add	sp, #8
    2436:	bd70      	pop	{r4, r5, r6, pc}
    2438:	400ca000 	andmi	sl, ip, r0
    243c:	100001a4 	andne	r0, r0, r4, lsr #3
    2440:	5000137c 	andpl	r1, r0, ip, ror r3
    2444:	400ca149 	andmi	sl, ip, r9, asr #2
    2448:	400ca14c 	andmi	sl, ip, ip, asr #2
    244c:	400ca141 	andmi	sl, ip, r1, asr #2
    2450:	400ca1dc 	ldrdmi	sl, [ip], -ip
    2454:	400ca040 	andmi	sl, ip, r0, asr #32

00002458 <NOROM_SetupSetCacheModeAccordingToCcfgSetting>:
    2458:	b530      	push	{r4, r5, lr}
    245a:	4b14      	ldr	r3, [pc, #80]	; (24ac <NOROM_SetupSetCacheModeAccordingToCcfgSetting+0x54>)
    245c:	681b      	ldr	r3, [r3, #0]
    245e:	2b00      	cmp	r3, #0
    2460:	d1fb      	bne.n	245a <NOROM_SetupSetCacheModeAccordingToCcfgSetting+0x2>
    2462:	4a13      	ldr	r2, [pc, #76]	; (24b0 <NOROM_SetupSetCacheModeAccordingToCcfgSetting+0x58>)
    2464:	4913      	ldr	r1, [pc, #76]	; (24b4 <NOROM_SetupSetCacheModeAccordingToCcfgSetting+0x5c>)
    2466:	6813      	ldr	r3, [r2, #0]
    2468:	6809      	ldr	r1, [r1, #0]
    246a:	f023 5300 	bic.w	r3, r3, #536870912	; 0x20000000
    246e:	f023 0307 	bic.w	r3, r3, #7
    2472:	f011 0f04 	tst.w	r1, #4
    2476:	4614      	mov	r4, r2
    2478:	f043 5300 	orr.w	r3, r3, #536870912	; 0x20000000
    247c:	d003      	beq.n	2486 <NOROM_SetupSetCacheModeAccordingToCcfgSetting+0x2e>
    247e:	f043 0305 	orr.w	r3, r3, #5
    2482:	6013      	str	r3, [r2, #0]
    2484:	bd30      	pop	{r4, r5, pc}
    2486:	490c      	ldr	r1, [pc, #48]	; (24b8 <NOROM_SetupSetCacheModeAccordingToCcfgSetting+0x60>)
    2488:	f043 0004 	orr.w	r0, r3, #4
    248c:	680d      	ldr	r5, [r1, #0]
    248e:	07ad      	lsls	r5, r5, #30
    2490:	d009      	beq.n	24a6 <NOROM_SetupSetCacheModeAccordingToCcfgSetting+0x4e>
    2492:	f043 0307 	orr.w	r3, r3, #7
    2496:	6013      	str	r3, [r2, #0]
    2498:	680b      	ldr	r3, [r1, #0]
    249a:	f003 0303 	and.w	r3, r3, #3
    249e:	2b03      	cmp	r3, #3
    24a0:	d1fa      	bne.n	2498 <NOROM_SetupSetCacheModeAccordingToCcfgSetting+0x40>
    24a2:	6020      	str	r0, [r4, #0]
    24a4:	bd30      	pop	{r4, r5, pc}
    24a6:	6010      	str	r0, [r2, #0]
    24a8:	bd30      	pop	{r4, r5, pc}
    24aa:	bf00      	nop
    24ac:	4268000c 	rsbmi	r0, r8, #12
    24b0:	40034004 	andmi	r4, r3, r4
    24b4:	50003fb0 			; <UNDEFINED> instruction: 0x50003fb0
    24b8:	40034000 	andmi	r4, r3, r0

000024bc <NOROM_SetupSetAonRtcSubSecInc>:
    24bc:	4b07      	ldr	r3, [pc, #28]	; (24dc <NOROM_SetupSetAonRtcSubSecInc+0x20>)
    24be:	b282      	uxth	r2, r0
    24c0:	f3c0 4007 	ubfx	r0, r0, #16, #8
    24c4:	601a      	str	r2, [r3, #0]
    24c6:	6058      	str	r0, [r3, #4]
    24c8:	2201      	movs	r2, #1
    24ca:	3308      	adds	r3, #8
    24cc:	601a      	str	r2, [r3, #0]
    24ce:	4a04      	ldr	r2, [pc, #16]	; (24e0 <NOROM_SetupSetAonRtcSubSecInc+0x24>)
    24d0:	6812      	ldr	r2, [r2, #0]
    24d2:	2a00      	cmp	r2, #0
    24d4:	d0fb      	beq.n	24ce <NOROM_SetupSetAonRtcSubSecInc+0x12>
    24d6:	2200      	movs	r2, #0
    24d8:	601a      	str	r2, [r3, #0]
    24da:	4770      	bx	lr
    24dc:	400c603c 	andmi	r6, ip, ip, lsr r0
    24e0:	438c0884 	orrmi	r0, ip, #132, 16	; 0x840000

000024e4 <NOROM_SetupAfterColdResetWakeupFromShutDownCfg3>:
    24e4:	f3c0 4381 	ubfx	r3, r0, #18, #2
    24e8:	2b01      	cmp	r3, #1
    24ea:	b510      	push	{r4, lr}
    24ec:	4604      	mov	r4, r0
    24ee:	d002      	beq.n	24f6 <NOROM_SetupAfterColdResetWakeupFromShutDownCfg3+0x12>
    24f0:	2b02      	cmp	r3, #2
    24f2:	d02f      	beq.n	2554 <NOROM_SetupAfterColdResetWakeupFromShutDownCfg3+0x70>
    24f4:	e02a      	b.n	254c <NOROM_SetupAfterColdResetWakeupFromShutDownCfg3+0x68>
    24f6:	4b42      	ldr	r3, [pc, #264]	; (2600 <NOROM_SetupAfterColdResetWakeupFromShutDownCfg3+0x11c>)
    24f8:	681b      	ldr	r3, [r3, #0]
    24fa:	039a      	lsls	r2, r3, #14
    24fc:	d426      	bmi.n	254c <NOROM_SetupAfterColdResetWakeupFromShutDownCfg3+0x68>
    24fe:	4a41      	ldr	r2, [pc, #260]	; (2604 <NOROM_SetupAfterColdResetWakeupFromShutDownCfg3+0x120>)
    2500:	f44f 4180 	mov.w	r1, #16384	; 0x4000
    2504:	6011      	str	r1, [r2, #0]
    2506:	4940      	ldr	r1, [pc, #256]	; (2608 <NOROM_SetupAfterColdResetWakeupFromShutDownCfg3+0x124>)
    2508:	f3c3 3003 	ubfx	r0, r3, #12, #4
    250c:	680a      	ldr	r2, [r1, #0]
    250e:	f022 028f 	bic.w	r2, r2, #143	; 0x8f
    2512:	4302      	orrs	r2, r0
    2514:	f3c3 4000 	ubfx	r0, r3, #16, #1
    2518:	ea42 12c0 	orr.w	r2, r2, r0, lsl #7
    251c:	600a      	str	r2, [r1, #0]
    251e:	f851 2c01 	ldr.w	r2, [r1, #-1]
    2522:	f3c3 2003 	ubfx	r0, r3, #8, #4
    2526:	f022 020f 	bic.w	r2, r2, #15
    252a:	4302      	orrs	r2, r0
    252c:	f851 0c01 	ldr.w	r0, [r1, #-1]
    2530:	f841 2c01 	str.w	r2, [r1, #-1]
    2534:	f851 2c02 	ldr.w	r2, [r1, #-2]
    2538:	f003 03e7 	and.w	r3, r3, #231	; 0xe7
    253c:	f022 02e7 	bic.w	r2, r2, #231	; 0xe7
    2540:	4313      	orrs	r3, r2
    2542:	f851 2c02 	ldr.w	r2, [r1, #-2]
    2546:	f841 3c02 	str.w	r3, [r1, #-2]
    254a:	e003      	b.n	2554 <NOROM_SetupAfterColdResetWakeupFromShutDownCfg3+0x70>
    254c:	4b2d      	ldr	r3, [pc, #180]	; (2604 <NOROM_SetupAfterColdResetWakeupFromShutDownCfg3+0x120>)
    254e:	f04f 4200 	mov.w	r2, #2147483648	; 0x80000000
    2552:	601a      	str	r2, [r3, #0]
    2554:	4b2d      	ldr	r3, [pc, #180]	; (260c <NOROM_SetupAfterColdResetWakeupFromShutDownCfg3+0x128>)
    2556:	681b      	ldr	r3, [r3, #0]
    2558:	071b      	lsls	r3, r3, #28
    255a:	bf5e      	ittt	pl
    255c:	4b2c      	ldrpl	r3, [pc, #176]	; (2610 <NOROM_SetupAfterColdResetWakeupFromShutDownCfg3+0x12c>)
    255e:	2240      	movpl	r2, #64	; 0x40
    2560:	601a      	strpl	r2, [r3, #0]
    2562:	4b2c      	ldr	r3, [pc, #176]	; (2614 <NOROM_SetupAfterColdResetWakeupFromShutDownCfg3+0x130>)
    2564:	f44f 7200 	mov.w	r2, #512	; 0x200
    2568:	601a      	str	r2, [r3, #0]
    256a:	f7ff febb 	bl	22e4 <NOROM_SetupGetTrimForXoscHfFastStart>
    256e:	4b2a      	ldr	r3, [pc, #168]	; (2618 <NOROM_SetupAfterColdResetWakeupFromShutDownCfg3+0x134>)
    2570:	f040 0030 	orr.w	r0, r0, #48	; 0x30
    2574:	b2c0      	uxtb	r0, r0
    2576:	7018      	strb	r0, [r3, #0]
    2578:	f3c4 5081 	ubfx	r0, r4, #22, #2
    257c:	2801      	cmp	r0, #1
    257e:	d00b      	beq.n	2598 <NOROM_SetupAfterColdResetWakeupFromShutDownCfg3+0xb4>
    2580:	d302      	bcc.n	2588 <NOROM_SetupAfterColdResetWakeupFromShutDownCfg3+0xa4>
    2582:	2802      	cmp	r0, #2
    2584:	d026      	beq.n	25d4 <NOROM_SetupAfterColdResetWakeupFromShutDownCfg3+0xf0>
    2586:	e028      	b.n	25da <NOROM_SetupAfterColdResetWakeupFromShutDownCfg3+0xf6>
    2588:	2004      	movs	r0, #4
    258a:	2101      	movs	r1, #1
    258c:	f000 fa1e 	bl	29cc <NOROM_OSCClockSourceSet>
    2590:	4822      	ldr	r0, [pc, #136]	; (261c <NOROM_SetupAfterColdResetWakeupFromShutDownCfg3+0x138>)
    2592:	f7ff ff93 	bl	24bc <NOROM_SetupSetAonRtcSubSecInc>
    2596:	e024      	b.n	25e2 <NOROM_SetupAfterColdResetWakeupFromShutDownCfg3+0xfe>
    2598:	f000 fa46 	bl	2a28 <NOROM_OSCClockSourceGet>
    259c:	4604      	mov	r4, r0
    259e:	2004      	movs	r0, #4
    25a0:	4621      	mov	r1, r4
    25a2:	f000 fa13 	bl	29cc <NOROM_OSCClockSourceSet>
    25a6:	2004      	movs	r0, #4
    25a8:	f000 fa3e 	bl	2a28 <NOROM_OSCClockSourceGet>
    25ac:	42a0      	cmp	r0, r4
    25ae:	d1fa      	bne.n	25a6 <NOROM_SetupAfterColdResetWakeupFromShutDownCfg3+0xc2>
    25b0:	4b1b      	ldr	r3, [pc, #108]	; (2620 <NOROM_SetupAfterColdResetWakeupFromShutDownCfg3+0x13c>)
    25b2:	681c      	ldr	r4, [r3, #0]
    25b4:	f024 407f 	bic.w	r0, r4, #4278190080	; 0xff000000
    25b8:	f7ff ff80 	bl	24bc <NOROM_SetupSetAonRtcSubSecInc>
    25bc:	4b19      	ldr	r3, [pc, #100]	; (2624 <NOROM_SetupAfterColdResetWakeupFromShutDownCfg3+0x140>)
    25be:	f04f 2260 	mov.w	r2, #1610637312	; 0x60006000
    25c2:	681b      	ldr	r3, [r3, #0]
    25c4:	0e20      	lsrs	r0, r4, #24
    25c6:	681b      	ldr	r3, [r3, #0]
    25c8:	2107      	movs	r1, #7
    25ca:	4798      	blx	r3
    25cc:	4b0d      	ldr	r3, [pc, #52]	; (2604 <NOROM_SetupAfterColdResetWakeupFromShutDownCfg3+0x120>)
    25ce:	f44f 6280 	mov.w	r2, #1024	; 0x400
    25d2:	601a      	str	r2, [r3, #0]
    25d4:	2004      	movs	r0, #4
    25d6:	2103      	movs	r1, #3
    25d8:	e001      	b.n	25de <NOROM_SetupAfterColdResetWakeupFromShutDownCfg3+0xfa>
    25da:	2004      	movs	r0, #4
    25dc:	2102      	movs	r1, #2
    25de:	f000 f9f5 	bl	29cc <NOROM_OSCClockSourceSet>
    25e2:	4b11      	ldr	r3, [pc, #68]	; (2628 <NOROM_SetupAfterColdResetWakeupFromShutDownCfg3+0x144>)
    25e4:	4a11      	ldr	r2, [pc, #68]	; (262c <NOROM_SetupAfterColdResetWakeupFromShutDownCfg3+0x148>)
    25e6:	681b      	ldr	r3, [r3, #0]
    25e8:	f003 033f 	and.w	r3, r3, #63	; 0x3f
    25ec:	7013      	strb	r3, [r2, #0]
    25ee:	f647 0218 	movw	r2, #30744	; 0x7818
    25f2:	4b0f      	ldr	r3, [pc, #60]	; (2630 <NOROM_SetupAfterColdResetWakeupFromShutDownCfg3+0x14c>)
    25f4:	801a      	strh	r2, [r3, #0]
    25f6:	f5a3 3364 	sub.w	r3, r3, #233472	; 0x39000
    25fa:	3b44      	subs	r3, #68	; 0x44
    25fc:	681b      	ldr	r3, [r3, #0]
    25fe:	bd10      	pop	{r4, pc}
    2600:	5000138c 	andpl	r1, r0, ip, lsl #7
    2604:	400ca040 	andmi	sl, ip, r0, asr #32
    2608:	4008600c 	andmi	r6, r8, ip
    260c:	50003fb0 			; <UNDEFINED> instruction: 0x50003fb0
    2610:	400ca068 	andmi	sl, ip, r8, rrx
    2614:	400ca080 	andmi	sl, ip, r0, lsl #1
    2618:	400ca108 	andmi	sl, ip, r8, lsl #2
    261c:	008637bd 			; <UNDEFINED> instruction: 0x008637bd
    2620:	50003fa8 	andpl	r3, r0, r8, lsr #31
    2624:	100001b4 			; <UNDEFINED> instruction: 0x100001b4
    2628:	5000136c 	andpl	r1, r0, ip, ror #6
    262c:	400cb00b 	andmi	fp, ip, fp
    2630:	400cb070 	andmi	fp, ip, r0, ror r0

00002634 <NOROM_SysCtrlSetRechargeBeforePowerDown>:
    2634:	e92d 4ff7 	stmdb	sp!, {r0, r1, r2, r4, r5, r6, r7, r8, r9, sl, fp, lr}
    2638:	4b77      	ldr	r3, [pc, #476]	; (2818 <NOROM_SysCtrlSetRechargeBeforePowerDown+0x1e4>)
    263a:	4607      	mov	r7, r0
    263c:	681b      	ldr	r3, [r3, #0]
    263e:	4e77      	ldr	r6, [pc, #476]	; (281c <NOROM_SysCtrlSetRechargeBeforePowerDown+0x1e8>)
    2640:	f013 0f02 	tst.w	r3, #2
    2644:	d004      	beq.n	2650 <NOROM_SysCtrlSetRechargeBeforePowerDown+0x1c>
    2646:	2308      	movs	r3, #8
    2648:	71b3      	strb	r3, [r6, #6]
    264a:	4a75      	ldr	r2, [pc, #468]	; (2820 <NOROM_SysCtrlSetRechargeBeforePowerDown+0x1ec>)
    264c:	4b75      	ldr	r3, [pc, #468]	; (2824 <NOROM_SysCtrlSetRechargeBeforePowerDown+0x1f0>)
    264e:	e0df      	b.n	2810 <NOROM_SysCtrlSetRechargeBeforePowerDown+0x1dc>
    2650:	f7ff fc1c 	bl	1e8c <NOROM_AONBatMonTemperatureGetDegC>
    2654:	4b74      	ldr	r3, [pc, #464]	; (2828 <NOROM_SysCtrlSetRechargeBeforePowerDown+0x1f4>)
    2656:	681d      	ldr	r5, [r3, #0]
    2658:	172a      	asrs	r2, r5, #28
    265a:	02ac      	lsls	r4, r5, #10
    265c:	f102 0101 	add.w	r1, r2, #1
    2660:	d408      	bmi.n	2674 <NOROM_SysCtrlSetRechargeBeforePowerDown+0x40>
    2662:	f1c0 033e 	rsb	r3, r0, #62	; 0x3e
    2666:	10db      	asrs	r3, r3, #3
    2668:	2b08      	cmp	r3, #8
    266a:	bfa8      	it	ge
    266c:	2308      	movge	r3, #8
    266e:	4299      	cmp	r1, r3
    2670:	bfb8      	it	lt
    2672:	4619      	movlt	r1, r3
    2674:	f005 7340 	and.w	r3, r5, #50331648	; 0x3000000
    2678:	f1b3 7f80 	cmp.w	r3, #16777216	; 0x1000000
    267c:	d10a      	bne.n	2694 <NOROM_SysCtrlSetRechargeBeforePowerDown+0x60>
    267e:	4b6b      	ldr	r3, [pc, #428]	; (282c <NOROM_SysCtrlSetRechargeBeforePowerDown+0x1f8>)
    2680:	681a      	ldr	r2, [r3, #0]
    2682:	681b      	ldr	r3, [r3, #0]
    2684:	f3c2 2204 	ubfx	r2, r2, #8, #5
    2688:	2a15      	cmp	r2, #21
    268a:	bf88      	it	hi
    268c:	3a20      	subhi	r2, #32
    268e:	f3c3 6304 	ubfx	r3, r3, #24, #5
    2692:	e00a      	b.n	26aa <NOROM_SysCtrlSetRechargeBeforePowerDown+0x76>
    2694:	4b66      	ldr	r3, [pc, #408]	; (2830 <NOROM_SysCtrlSetRechargeBeforePowerDown+0x1fc>)
    2696:	681a      	ldr	r2, [r3, #0]
    2698:	4b66      	ldr	r3, [pc, #408]	; (2834 <NOROM_SysCtrlSetRechargeBeforePowerDown+0x200>)
    269a:	f3c2 6204 	ubfx	r2, r2, #24, #5
    269e:	681b      	ldr	r3, [r3, #0]
    26a0:	2a15      	cmp	r2, #21
    26a2:	bf88      	it	hi
    26a4:	3a20      	subhi	r2, #32
    26a6:	f3c3 4304 	ubfx	r3, r3, #16, #5
    26aa:	2b15      	cmp	r3, #21
    26ac:	440a      	add	r2, r1
    26ae:	bf88      	it	hi
    26b0:	3b20      	subhi	r3, #32
    26b2:	2a15      	cmp	r2, #21
    26b4:	dc05      	bgt.n	26c2 <NOROM_SysCtrlSetRechargeBeforePowerDown+0x8e>
    26b6:	f06f 0109 	mvn.w	r1, #9
    26ba:	428a      	cmp	r2, r1
    26bc:	bfb8      	it	lt
    26be:	460a      	movlt	r2, r1
    26c0:	e000      	b.n	26c4 <NOROM_SysCtrlSetRechargeBeforePowerDown+0x90>
    26c2:	2215      	movs	r2, #21
    26c4:	4c5c      	ldr	r4, [pc, #368]	; (2838 <NOROM_SysCtrlSetRechargeBeforePowerDown+0x204>)
    26c6:	f002 011f 	and.w	r1, r2, #31
    26ca:	f441 51f8 	orr.w	r1, r1, #7936	; 0x1f00
    26ce:	8021      	strh	r1, [r4, #0]
    26d0:	495a      	ldr	r1, [pc, #360]	; (283c <NOROM_SysCtrlSetRechargeBeforePowerDown+0x208>)
    26d2:	6809      	ldr	r1, [r1, #0]
    26d4:	f011 0403 	ands.w	r4, r1, #3
    26d8:	bf18      	it	ne
    26da:	2401      	movne	r4, #1
    26dc:	0749      	lsls	r1, r1, #29
    26de:	bf48      	it	mi
    26e0:	f044 0402 	orrmi.w	r4, r4, #2
    26e4:	b10f      	cbz	r7, 26ea <NOROM_SysCtrlSetRechargeBeforePowerDown+0xb6>
    26e6:	f044 0404 	orr.w	r4, r4, #4
    26ea:	f996 1007 	ldrsb.w	r1, [r6, #7]
    26ee:	1a41      	subs	r1, r0, r1
    26f0:	2904      	cmp	r1, #4
    26f2:	dc03      	bgt.n	26fc <NOROM_SysCtrlSetRechargeBeforePowerDown+0xc8>
    26f4:	4949      	ldr	r1, [pc, #292]	; (281c <NOROM_SysCtrlSetRechargeBeforePowerDown+0x1e8>)
    26f6:	7989      	ldrb	r1, [r1, #6]
    26f8:	428c      	cmp	r4, r1
    26fa:	d06f      	beq.n	27dc <NOROM_SysCtrlSetRechargeBeforePowerDown+0x1a8>
    26fc:	f1b0 010f 	subs.w	r1, r0, #15
    2700:	9101      	str	r1, [sp, #4]
    2702:	f004 0101 	and.w	r1, r4, #1
    2706:	f8df a144 	ldr.w	sl, [pc, #324]	; 284c <NOROM_SysCtrlSetRechargeBeforePowerDown+0x218>
    270a:	f004 0904 	and.w	r9, r4, #4
    270e:	f004 0802 	and.w	r8, r4, #2
    2712:	460f      	mov	r7, r1
    2714:	d42a      	bmi.n	276c <NOROM_SysCtrlSetRechargeBeforePowerDown+0x138>
    2716:	9901      	ldr	r1, [sp, #4]
    2718:	eb01 1101 	add.w	r1, r1, r1, lsl #4
    271c:	ea4f 2e21 	mov.w	lr, r1, asr #8
    2720:	f1be 0f07 	cmp.w	lr, #7
    2724:	9101      	str	r1, [sp, #4]
    2726:	d801      	bhi.n	272c <NOROM_SysCtrlSetRechargeBeforePowerDown+0xf8>
    2728:	d104      	bne.n	2734 <NOROM_SysCtrlSetRechargeBeforePowerDown+0x100>
    272a:	e001      	b.n	2730 <NOROM_SysCtrlSetRechargeBeforePowerDown+0xfc>
    272c:	f04f 0e07 	mov.w	lr, #7
    2730:	2106      	movs	r1, #6
    2732:	e000      	b.n	2736 <NOROM_SysCtrlSetRechargeBeforePowerDown+0x102>
    2734:	4671      	mov	r1, lr
    2736:	f8df b118 	ldr.w	fp, [pc, #280]	; 2850 <NOROM_SysCtrlSetRechargeBeforePowerDown+0x21c>
    273a:	3101      	adds	r1, #1
    273c:	f85a c021 	ldr.w	ip, [sl, r1, lsl #2]
    2740:	f85b 1021 	ldr.w	r1, [fp, r1, lsl #2]
    2744:	ebc1 0c0c 	rsb	ip, r1, ip
    2748:	fa5f f18c 	uxtb.w	r1, ip
    274c:	f1b9 0f00 	cmp.w	r9, #0
    2750:	d002      	beq.n	2758 <NOROM_SysCtrlSetRechargeBeforePowerDown+0x124>
    2752:	f3cc 2b07 	ubfx	fp, ip, #8, #8
    2756:	4459      	add	r1, fp
    2758:	f1b8 0f00 	cmp.w	r8, #0
    275c:	d002      	beq.n	2764 <NOROM_SysCtrlSetRechargeBeforePowerDown+0x130>
    275e:	f3cc 4b07 	ubfx	fp, ip, #16, #8
    2762:	4459      	add	r1, fp
    2764:	b12f      	cbz	r7, 2772 <NOROM_SysCtrlSetRechargeBeforePowerDown+0x13e>
    2766:	eb01 611c 	add.w	r1, r1, ip, lsr #24
    276a:	e002      	b.n	2772 <NOROM_SysCtrlSetRechargeBeforePowerDown+0x13e>
    276c:	f04f 0e00 	mov.w	lr, #0
    2770:	4671      	mov	r1, lr
    2772:	f85a a02e 	ldr.w	sl, [sl, lr, lsl #2]
    2776:	fa5f fc8a 	uxtb.w	ip, sl
    277a:	f1b9 0f00 	cmp.w	r9, #0
    277e:	d002      	beq.n	2786 <NOROM_SysCtrlSetRechargeBeforePowerDown+0x152>
    2780:	f3ca 2907 	ubfx	r9, sl, #8, #8
    2784:	44cc      	add	ip, r9
    2786:	f1b8 0f00 	cmp.w	r8, #0
    278a:	d002      	beq.n	2792 <NOROM_SysCtrlSetRechargeBeforePowerDown+0x15e>
    278c:	f3ca 4807 	ubfx	r8, sl, #16, #8
    2790:	44c4      	add	ip, r8
    2792:	b10f      	cbz	r7, 2798 <NOROM_SysCtrlSetRechargeBeforePowerDown+0x164>
    2794:	eb0c 6c1a 	add.w	ip, ip, sl, lsr #24
    2798:	1a9b      	subs	r3, r3, r2
    279a:	2b01      	cmp	r3, #1
    279c:	bfb8      	it	lt
    279e:	2301      	movlt	r3, #1
    27a0:	9f01      	ldr	r7, [sp, #4]
    27a2:	2234      	movs	r2, #52	; 0x34
    27a4:	4353      	muls	r3, r2
    27a6:	eba7 270e 	sub.w	r7, r7, lr, lsl #8
    27aa:	4379      	muls	r1, r7
    27ac:	b2ed      	uxtb	r5, r5
    27ae:	436b      	muls	r3, r5
    27b0:	3180      	adds	r1, #128	; 0x80
    27b2:	eb0c 2111 	add.w	r1, ip, r1, lsr #8
    27b6:	fbb3 f1f1 	udiv	r1, r3, r1
    27ba:	f64f 7cff 	movw	ip, #65535	; 0xffff
    27be:	4561      	cmp	r1, ip
    27c0:	bf28      	it	cs
    27c2:	4661      	movcs	r1, ip
    27c4:	287f      	cmp	r0, #127	; 0x7f
    27c6:	80b1      	strh	r1, [r6, #4]
    27c8:	dc05      	bgt.n	27d6 <NOROM_SysCtrlSetRechargeBeforePowerDown+0x1a2>
    27ca:	f06f 037f 	mvn.w	r3, #127	; 0x7f
    27ce:	4298      	cmp	r0, r3
    27d0:	bfb8      	it	lt
    27d2:	4618      	movlt	r0, r3
    27d4:	e000      	b.n	27d8 <NOROM_SysCtrlSetRechargeBeforePowerDown+0x1a4>
    27d6:	207f      	movs	r0, #127	; 0x7f
    27d8:	71f0      	strb	r0, [r6, #7]
    27da:	71b4      	strb	r4, [r6, #6]
    27dc:	4b18      	ldr	r3, [pc, #96]	; (2840 <NOROM_SysCtrlSetRechargeBeforePowerDown+0x20c>)
    27de:	2100      	movs	r1, #0
    27e0:	681b      	ldr	r3, [r3, #0]
    27e2:	6033      	str	r3, [r6, #0]
    27e4:	88b3      	ldrh	r3, [r6, #4]
    27e6:	2b1e      	cmp	r3, #30
    27e8:	bf9e      	ittt	ls
    27ea:	4a0c      	ldrls	r2, [pc, #48]	; (281c <NOROM_SysCtrlSetRechargeBeforePowerDown+0x1e8>)
    27ec:	231f      	movls	r3, #31
    27ee:	8093      	strhls	r3, [r2, #4]
    27f0:	f5b3 7f00 	cmp.w	r3, #512	; 0x200
    27f4:	d302      	bcc.n	27fc <NOROM_SysCtrlSetRechargeBeforePowerDown+0x1c8>
    27f6:	085b      	lsrs	r3, r3, #1
    27f8:	3101      	adds	r1, #1
    27fa:	e7f9      	b.n	27f0 <NOROM_SysCtrlSetRechargeBeforePowerDown+0x1bc>
    27fc:	4a11      	ldr	r2, [pc, #68]	; (2844 <NOROM_SysCtrlSetRechargeBeforePowerDown+0x210>)
    27fe:	3b0f      	subs	r3, #15
    2800:	430a      	orrs	r2, r1
    2802:	091b      	lsrs	r3, r3, #4
    2804:	ea42 03c3 	orr.w	r3, r2, r3, lsl #3
    2808:	4a06      	ldr	r2, [pc, #24]	; (2824 <NOROM_SysCtrlSetRechargeBeforePowerDown+0x1f0>)
    280a:	6013      	str	r3, [r2, #0]
    280c:	4b0e      	ldr	r3, [pc, #56]	; (2848 <NOROM_SysCtrlSetRechargeBeforePowerDown+0x214>)
    280e:	2200      	movs	r2, #0
    2810:	601a      	str	r2, [r3, #0]
    2812:	b003      	add	sp, #12
    2814:	e8bd 8ff0 	ldmia.w	sp!, {r4, r5, r6, r7, r8, r9, sl, fp, pc}
    2818:	40090000 	andmi	r0, r9, r0
    281c:	2000004c 	andcs	r0, r0, ip, asr #32
    2820:	00a4fdfd 	strdeq	pc, [r4], sp	; <UNPREDICTABLE>
    2824:	40091030 	andmi	r1, r9, r0, lsr r0
    2828:	50003fb4 			; <UNDEFINED> instruction: 0x50003fb4
    282c:	50001388 	andpl	r1, r0, r8, lsl #7
    2830:	500012b8 			; <UNDEFINED> instruction: 0x500012b8
    2834:	5000113c 	andpl	r1, r0, ip, lsr r1
    2838:	4008626e 	andmi	r6, r8, lr, ror #4
    283c:	40082224 	andmi	r2, r8, r4, lsr #4
    2840:	40092008 	andmi	r2, r9, r8
    2844:	80a4e700 	adchi	lr, r4, r0, lsl #14
    2848:	40091034 	andmi	r1, r9, r4, lsr r0
    284c:	5000139c 	mulpl	r0, ip, r3
    2850:	50001398 	mulpl	r0, r8, r3

00002854 <NOROM_SysCtrlAdjustRechargeAfterPowerDown>:
    2854:	b510      	push	{r4, lr}
    2856:	4b14      	ldr	r3, [pc, #80]	; (28a8 <NOROM_SysCtrlAdjustRechargeAfterPowerDown+0x54>)
    2858:	681c      	ldr	r4, [r3, #0]
    285a:	b2a4      	uxth	r4, r4
    285c:	b314      	cbz	r4, 28a4 <NOROM_SysCtrlAdjustRechargeAfterPowerDown+0x50>
    285e:	f7ff fb15 	bl	1e8c <NOROM_AONBatMonTemperatureGetDegC>
    2862:	4b12      	ldr	r3, [pc, #72]	; (28ac <NOROM_SysCtrlAdjustRechargeAfterPowerDown+0x58>)
    2864:	f993 2007 	ldrsb.w	r2, [r3, #7]
    2868:	4290      	cmp	r0, r2
    286a:	da05      	bge.n	2878 <NOROM_SysCtrlAdjustRechargeAfterPowerDown+0x24>
    286c:	f06f 027f 	mvn.w	r2, #127	; 0x7f
    2870:	4290      	cmp	r0, r2
    2872:	bfb8      	it	lt
    2874:	4610      	movlt	r0, r2
    2876:	71d8      	strb	r0, [r3, #7]
    2878:	889a      	ldrh	r2, [r3, #4]
    287a:	490c      	ldr	r1, [pc, #48]	; (28ac <NOROM_SysCtrlAdjustRechargeAfterPowerDown+0x58>)
    287c:	4294      	cmp	r4, r2
    287e:	d310      	bcc.n	28a2 <NOROM_SysCtrlAdjustRechargeAfterPowerDown+0x4e>
    2880:	4b0b      	ldr	r3, [pc, #44]	; (28b0 <NOROM_SysCtrlAdjustRechargeAfterPowerDown+0x5c>)
    2882:	6808      	ldr	r0, [r1, #0]
    2884:	681b      	ldr	r3, [r3, #0]
    2886:	1aa4      	subs	r4, r4, r2
    2888:	3302      	adds	r3, #2
    288a:	1a1b      	subs	r3, r3, r0
    288c:	2b1f      	cmp	r3, #31
    288e:	bf28      	it	cs
    2890:	231f      	movcs	r3, #31
    2892:	085b      	lsrs	r3, r3, #1
    2894:	40dc      	lsrs	r4, r3
    2896:	4414      	add	r4, r2
    2898:	f64f 72ff 	movw	r2, #65535	; 0xffff
    289c:	4294      	cmp	r4, r2
    289e:	bf28      	it	cs
    28a0:	4614      	movcs	r4, r2
    28a2:	808c      	strh	r4, [r1, #4]
    28a4:	bd10      	pop	{r4, pc}
    28a6:	bf00      	nop
    28a8:	40091034 	andmi	r1, r9, r4, lsr r0
    28ac:	2000004c 	andcs	r0, r0, ip, asr #32
    28b0:	40092008 	andmi	r2, r9, r8

000028b4 <NOROM_SysCtrlResetSourceGet>:
    28b4:	4b04      	ldr	r3, [pc, #16]	; (28c8 <NOROM_SysCtrlResetSourceGet+0x14>)
    28b6:	681a      	ldr	r2, [r3, #0]
    28b8:	0412      	lsls	r2, r2, #16
    28ba:	bf5a      	itte	pl
    28bc:	6818      	ldrpl	r0, [r3, #0]
    28be:	f3c0 0042 	ubfxpl	r0, r0, #1, #3
    28c2:	2008      	movmi	r0, #8
    28c4:	4770      	bx	lr
    28c6:	bf00      	nop
    28c8:	40090004 	andmi	r0, r9, r4

000028cc <NOROM_ChipInfo_GetChipFamily>:
    28cc:	f64b 129a 	movw	r2, #47514	; 0xb99a
    28d0:	4b10      	ldr	r3, [pc, #64]	; (2914 <NOROM_ChipInfo_GetChipFamily+0x48>)
    28d2:	6818      	ldr	r0, [r3, #0]
    28d4:	f3c0 300f 	ubfx	r0, r0, #12, #16
    28d8:	4290      	cmp	r0, r2
    28da:	d106      	bne.n	28ea <NOROM_ChipInfo_GetChipFamily+0x1e>
    28dc:	681b      	ldr	r3, [r3, #0]
    28de:	0f1b      	lsrs	r3, r3, #28
    28e0:	2b0b      	cmp	r3, #11
    28e2:	bf0c      	ite	eq
    28e4:	2004      	moveq	r0, #4
    28e6:	2000      	movne	r0, #0
    28e8:	e011      	b.n	290e <NOROM_ChipInfo_GetChipFamily+0x42>
    28ea:	f64b 13be 	movw	r3, #47550	; 0xb9be
    28ee:	4298      	cmp	r0, r3
    28f0:	d00a      	beq.n	2908 <NOROM_ChipInfo_GetChipFamily+0x3c>
    28f2:	f64b 3341 	movw	r3, #47937	; 0xbb41
    28f6:	4298      	cmp	r0, r3
    28f8:	d008      	beq.n	290c <NOROM_ChipInfo_GetChipFamily+0x40>
    28fa:	f64b 3320 	movw	r3, #47904	; 0xbb20
    28fe:	4298      	cmp	r0, r3
    2900:	bf14      	ite	ne
    2902:	20ff      	movne	r0, #255	; 0xff
    2904:	2002      	moveq	r0, #2
    2906:	e002      	b.n	290e <NOROM_ChipInfo_GetChipFamily+0x42>
    2908:	2001      	movs	r0, #1
    290a:	e000      	b.n	290e <NOROM_ChipInfo_GetChipFamily+0x42>
    290c:	2003      	movs	r0, #3
    290e:	b240      	sxtb	r0, r0
    2910:	4770      	bx	lr
    2912:	bf00      	nop
    2914:	50001318 	andpl	r1, r0, r8, lsl r3

00002918 <NOROM_ChipInfo_GetHwRevision>:
    2918:	b538      	push	{r3, r4, r5, lr}
    291a:	4b19      	ldr	r3, [pc, #100]	; (2980 <NOROM_ChipInfo_GetHwRevision+0x68>)
    291c:	681d      	ldr	r5, [r3, #0]
    291e:	f5a3 731e 	sub.w	r3, r3, #632	; 0x278
    2922:	6818      	ldr	r0, [r3, #0]
    2924:	0f2d      	lsrs	r5, r5, #28
    2926:	b2c4      	uxtb	r4, r0
    2928:	2c80      	cmp	r4, #128	; 0x80
    292a:	bf28      	it	cs
    292c:	2400      	movcs	r4, #0
    292e:	f7ff ffcd 	bl	28cc <NOROM_ChipInfo_GetChipFamily>
    2932:	2804      	cmp	r0, #4
    2934:	d821      	bhi.n	297a <NOROM_ChipInfo_GetHwRevision+0x62>
    2936:	e8df f000 	tbb	[pc, r0]
    293a:	1b1b1303 	blne	6c754e <__ccfg+0x6a75a6>
    293e:	3d01001c 	stccc	0, cr0, [r1, #-112]	; 0xffffff90
    2942:	2d07      	cmp	r5, #7
    2944:	d819      	bhi.n	297a <NOROM_ChipInfo_GetHwRevision+0x62>
    2946:	e8df f005 	tbb	[pc, r5]
    294a:	18041811 	stmdane	r4, {r0, r4, fp, ip}
    294e:	08061818 	stmdaeq	r6, {r3, r4, fp, ip}
    2952:	2014      	movs	r0, #20
    2954:	e012      	b.n	297c <NOROM_ChipInfo_GetHwRevision+0x64>
    2956:	2015      	movs	r0, #21
    2958:	e010      	b.n	297c <NOROM_ChipInfo_GetHwRevision+0x64>
    295a:	f104 0016 	add.w	r0, r4, #22
    295e:	e00a      	b.n	2976 <NOROM_ChipInfo_GetHwRevision+0x5e>
    2960:	b125      	cbz	r5, 296c <NOROM_ChipInfo_GetHwRevision+0x54>
    2962:	2d02      	cmp	r5, #2
    2964:	d109      	bne.n	297a <NOROM_ChipInfo_GetHwRevision+0x62>
    2966:	f104 0014 	add.w	r0, r4, #20
    296a:	e004      	b.n	2976 <NOROM_ChipInfo_GetHwRevision+0x5e>
    296c:	200a      	movs	r0, #10
    296e:	e005      	b.n	297c <NOROM_ChipInfo_GetHwRevision+0x64>
    2970:	b91d      	cbnz	r5, 297a <NOROM_ChipInfo_GetHwRevision+0x62>
    2972:	f104 000a 	add.w	r0, r4, #10
    2976:	b2c0      	uxtb	r0, r0
    2978:	e000      	b.n	297c <NOROM_ChipInfo_GetHwRevision+0x64>
    297a:	20ff      	movs	r0, #255	; 0xff
    297c:	b240      	sxtb	r0, r0
    297e:	bd38      	pop	{r3, r4, r5, pc}
    2980:	50001318 	andpl	r1, r0, r8, lsl r3

00002984 <NOROM_ThisCodeIsBuiltForCC13xxHwRev20AndLater_HaltIfViolated>:
    2984:	b508      	push	{r3, lr}
    2986:	f7ff ffa1 	bl	28cc <NOROM_ChipInfo_GetChipFamily>
    298a:	2801      	cmp	r0, #1
    298c:	d103      	bne.n	2996 <NOROM_ThisCodeIsBuiltForCC13xxHwRev20AndLater_HaltIfViolated+0x12>
    298e:	f7ff ffc3 	bl	2918 <NOROM_ChipInfo_GetHwRevision>
    2992:	2813      	cmp	r0, #19
    2994:	dc00      	bgt.n	2998 <NOROM_ThisCodeIsBuiltForCC13xxHwRev20AndLater_HaltIfViolated+0x14>
    2996:	e7fe      	b.n	2996 <NOROM_ThisCodeIsBuiltForCC13xxHwRev20AndLater_HaltIfViolated+0x12>
    2998:	bd08      	pop	{r3, pc}
	...

0000299c <AuxAdiDdiSafeWrite.constprop.1>:
    299c:	b538      	push	{r3, r4, r5, lr}
    299e:	4604      	mov	r4, r0
    29a0:	460d      	mov	r5, r1
    29a2:	f7ff fa97 	bl	1ed4 <NOROM_CPUcpsid>
    29a6:	4b06      	ldr	r3, [pc, #24]	; (29c0 <AuxAdiDdiSafeWrite.constprop.1+0x24>)
    29a8:	681a      	ldr	r2, [r3, #0]
    29aa:	2a00      	cmp	r2, #0
    29ac:	d0fb      	beq.n	29a6 <AuxAdiDdiSafeWrite.constprop.1+0xa>
    29ae:	2201      	movs	r2, #1
    29b0:	6025      	str	r5, [r4, #0]
    29b2:	601a      	str	r2, [r3, #0]
    29b4:	b918      	cbnz	r0, 29be <AuxAdiDdiSafeWrite.constprop.1+0x22>
    29b6:	e8bd 4038 	ldmia.w	sp!, {r3, r4, r5, lr}
    29ba:	f7ff ba8f 	b.w	1edc <NOROM_CPUcpsie>
    29be:	bd38      	pop	{r3, r4, r5, pc}
    29c0:	400c8000 	andmi	r8, ip, r0

000029c4 <NOROM_DDI32RegWrite>:
    29c4:	4408      	add	r0, r1
    29c6:	4611      	mov	r1, r2
    29c8:	f7ff bfe8 	b.w	299c <AuxAdiDdiSafeWrite.constprop.1>

000029cc <NOROM_OSCClockSourceSet>:
    29cc:	b573      	push	{r0, r1, r4, r5, r6, lr}
    29ce:	460c      	mov	r4, r1
    29d0:	07c1      	lsls	r1, r0, #31
    29d2:	4605      	mov	r5, r0
    29d4:	d509      	bpl.n	29ea <NOROM_OSCClockSourceSet+0x1e>
    29d6:	4b12      	ldr	r3, [pc, #72]	; (2a20 <NOROM_OSCClockSourceSet+0x54>)
    29d8:	b2a2      	uxth	r2, r4
    29da:	681b      	ldr	r3, [r3, #0]
    29dc:	2100      	movs	r1, #0
    29de:	9200      	str	r2, [sp, #0]
    29e0:	685e      	ldr	r6, [r3, #4]
    29e2:	4810      	ldr	r0, [pc, #64]	; (2a24 <NOROM_OSCClockSourceSet+0x58>)
    29e4:	2201      	movs	r2, #1
    29e6:	460b      	mov	r3, r1
    29e8:	47b0      	blx	r6
    29ea:	07aa      	lsls	r2, r5, #30
    29ec:	d509      	bpl.n	2a02 <NOROM_OSCClockSourceSet+0x36>
    29ee:	4b0c      	ldr	r3, [pc, #48]	; (2a20 <NOROM_OSCClockSourceSet+0x54>)
    29f0:	b2a2      	uxth	r2, r4
    29f2:	681b      	ldr	r3, [r3, #0]
    29f4:	9200      	str	r2, [sp, #0]
    29f6:	685e      	ldr	r6, [r3, #4]
    29f8:	480a      	ldr	r0, [pc, #40]	; (2a24 <NOROM_OSCClockSourceSet+0x58>)
    29fa:	2100      	movs	r1, #0
    29fc:	2202      	movs	r2, #2
    29fe:	2301      	movs	r3, #1
    2a00:	47b0      	blx	r6
    2a02:	076b      	lsls	r3, r5, #29
    2a04:	d509      	bpl.n	2a1a <NOROM_OSCClockSourceSet+0x4e>
    2a06:	4b06      	ldr	r3, [pc, #24]	; (2a20 <NOROM_OSCClockSourceSet+0x54>)
    2a08:	b2a4      	uxth	r4, r4
    2a0a:	681b      	ldr	r3, [r3, #0]
    2a0c:	9400      	str	r4, [sp, #0]
    2a0e:	685c      	ldr	r4, [r3, #4]
    2a10:	4804      	ldr	r0, [pc, #16]	; (2a24 <NOROM_OSCClockSourceSet+0x58>)
    2a12:	2100      	movs	r1, #0
    2a14:	220c      	movs	r2, #12
    2a16:	2302      	movs	r3, #2
    2a18:	47a0      	blx	r4
    2a1a:	b002      	add	sp, #8
    2a1c:	bd70      	pop	{r4, r5, r6, pc}
    2a1e:	bf00      	nop
    2a20:	100001a4 	andne	r0, r0, r4, lsr #3
    2a24:	400ca000 	andmi	sl, ip, r0

00002a28 <NOROM_OSCClockSourceGet>:
    2a28:	b510      	push	{r4, lr}
    2a2a:	4b08      	ldr	r3, [pc, #32]	; (2a4c <NOROM_OSCClockSourceGet+0x24>)
    2a2c:	2804      	cmp	r0, #4
    2a2e:	681b      	ldr	r3, [r3, #0]
    2a30:	f04f 0134 	mov.w	r1, #52	; 0x34
    2a34:	68dc      	ldr	r4, [r3, #12]
    2a36:	bf07      	ittee	eq
    2a38:	f04f 42c0 	moveq.w	r2, #1610612736	; 0x60000000
    2a3c:	231d      	moveq	r3, #29
    2a3e:	f04f 5280 	movne.w	r2, #268435456	; 0x10000000
    2a42:	231c      	movne	r3, #28
    2a44:	4802      	ldr	r0, [pc, #8]	; (2a50 <NOROM_OSCClockSourceGet+0x28>)
    2a46:	47a0      	blx	r4
    2a48:	bd10      	pop	{r4, pc}
    2a4a:	bf00      	nop
    2a4c:	100001a4 	andne	r0, r0, r4, lsr #3
    2a50:	400ca000 	andmi	sl, ip, r0
    2a54:	65746e45 	ldrbvs	r6, [r4, #-3653]!	; 0xfffff1bb
    2a58:	6f792072 	svcvs	0x00792072
    2a5c:	6e207275 	mcrvs	2, 1, r7, cr0, cr5, {3}
    2a60:	3a656d61 	bcc	195dfec <__ccfg+0x193e044>
    2a64:	65570020 	ldrbvs	r0, [r7, #-32]	; 0xffffffe0
    2a68:	6d6f636c 	stclvs	3, cr6, [pc, #-432]!	; 28c0 <NOROM_SysCtrlResetSourceGet+0xc>
    2a6c:	73252065 			; <UNDEFINED> instruction: 0x73252065
    2a70:	65530d0a 	ldrbvs	r0, [r3, #-3338]	; 0xfffff2f6
    2a74:	7463656c 	strbtvc	r6, [r3], #-1388	; 0xfffffa94
    2a78:	656e6f20 	strbvs	r6, [lr, #-3872]!	; 0xfffff0e0
    2a7c:	20666f20 	rsbcs	r6, r6, r0, lsr #30
    2a80:	20656874 	rsbcs	r6, r5, r4, ror r8
    2a84:	6c6c6f66 	stclvs	15, cr6, [ip], #-408	; 0xfffffe68
    2a88:	6e69776f 	cdpvs	7, 6, cr7, cr9, cr15, {3}
    2a8c:	706f2067 	rsbvc	r2, pc, r7, rrx
    2a90:	74617265 	strbtvc	r7, [r1], #-613	; 0xfffffd9b
    2a94:	736e6f69 	cmnvc	lr, #420	; 0x1a4
    2a98:	280d0a3a 	stmdacs	sp, {r1, r3, r4, r5, r9, fp}
    2a9c:	6a642941 	bvs	190cfa8 <__ccfg+0x18ed000>
    2aa0:	20747375 	rsbscs	r7, r4, r5, ror r3
    2aa4:	65746e49 	ldrbvs	r6, [r4, #-3657]!	; 0xfffff1b7
    2aa8:	6c617672 	stclvs	6, cr7, [r1], #-456	; 0xfffffe38
    2aac:	6e612073 	mcrvs	0, 3, r2, cr1, cr3, {3}
    2ab0:	74732064 	ldrbtvc	r2, [r3], #-100	; 0xffffff9c
    2ab4:	0a747261 	beq	1d1f440 <__ccfg+0x1cff498>
    2ab8:	2953280d 	ldmdbcs	r3, {r0, r2, r3, fp, sp}^
    2abc:	20706f74 	rsbscs	r6, r0, r4, ror pc
    2ac0:	7265706f 	rsbvc	r7, r5, #111	; 0x6f
    2ac4:	6f697461 	svcvs	0x00697461
    2ac8:	280d0a6e 	stmdacs	sp, {r1, r2, r3, r5, r6, r9, fp}
    2acc:	65692956 	strbvs	r2, [r9, #-2390]!	; 0xfffff6aa
    2ad0:	75632077 	strbvc	r2, [r3, #-119]!	; 0xffffff89
    2ad4:	6e657272 	mcrvs	2, 3, r7, cr5, cr2, {3}
    2ad8:	65732074 	ldrbvs	r2, [r3, #-116]!	; 0xffffff8c
    2adc:	6e697474 	mcrvs	4, 3, r7, cr9, cr4, {3}
    2ae0:	280d0a67 	stmdacs	sp, {r0, r1, r2, r5, r6, r9, fp}
    2ae4:	6e6f294d 	vnmulvs.f16	s5, s30, s26	; <UNPREDICTABLE>
    2ae8:	726f7469 	rsbvc	r7, pc, #1761607680	; 0x69000000
    2aec:	68430d0a 	stmdavs	r3, {r1, r3, r8, sl, fp}^
    2af0:	6563696f 	strbvs	r6, [r3, #-2415]!	; 0xfffff691
    2af4:	2500203a 	strcs	r2, [r0, #-58]	; 0xffffffc6
    2af8:	6e450063 	cdpvs	0, 4, cr0, cr5, cr3, {3}
    2afc:	20726574 	rsbscs	r6, r2, r4, ror r5
    2b00:	20656874 	rsbcs	r6, r5, r4, ror r8
    2b04:	65746e69 	ldrbvs	r6, [r4, #-3689]!	; 0xfffff197
    2b08:	6c617672 	stclvs	6, cr7, [r1], #-456	; 0xfffffe38
    2b0c:	52282073 	eorpl	r2, r8, #115	; 0x73
    2b10:	4f206465 	svcmi	0x00206465
    2b14:	4f202c4e 	svcmi	0x00202c4e
    2b18:	202c4646 	eorcs	r4, ip, r6, asr #12
    2b1c:	65657247 	strbvs	r7, [r5, #-583]!	; 0xfffffdb9
    2b20:	4e4f206e 	cdpmi	0, 4, cr2, cr15, cr14, {3}
    2b24:	464f202c 	strbmi	r2, [pc], -ip, lsr #32
    2b28:	203a2946 	eorscs	r2, sl, r6, asr #18
    2b2c:	65522800 	ldrbvs	r2, [r2, #-2048]	; 0xfffff800
    2b30:	4e4f2064 	cdpmi	0, 4, cr2, cr15, cr4, {3}
    2b34:	464f202c 	strbmi	r2, [pc], -ip, lsr #32
    2b38:	47202c46 	strmi	r2, [r0, -r6, asr #24]!
    2b3c:	6e656572 	mcrvs	5, 3, r6, cr5, cr2, {3}
    2b40:	2c4e4f20 	mcrrcs	15, 2, r4, lr, cr0
    2b44:	46464f20 	strbmi	r4, [r6], -r0, lsr #30
    2b48:	6e692029 	cdpvs	0, 6, cr2, cr9, cr9, {1}
    2b4c:	76726574 			; <UNDEFINED> instruction: 0x76726574
    2b50:	3a736c61 	bcc	1cddcdc <__ccfg+0x1cbdd34>
    2b54:	64252820 	strtvs	r2, [r5], #-2080	; 0xfffff7e0
    2b58:	6425202c 	strtvs	r2, [r5], #-44	; 0xffffffd4
    2b5c:	6425202c 	strtvs	r2, [r5], #-44	; 0xffffffd4
    2b60:	6425202c 	strtvs	r2, [r5], #-44	; 0xffffffd4
    2b64:	000d0a29 	andeq	r0, sp, r9, lsr #20
    2b68:	696e6f4d 	stmdbvs	lr!, {r0, r2, r3, r6, r8, r9, sl, fp, sp, lr}^
    2b6c:	20726f74 	rsbscs	r6, r2, r4, ror pc
    2b70:	65727028 	ldrbvs	r7, [r2, #-40]!	; 0xffffffd8
    2b74:	53207373 			; <UNDEFINED> instruction: 0x53207373
    2b78:	206f7420 	rsbcs	r7, pc, r0, lsr #8
    2b7c:	706f7473 	rsbvc	r7, pc, r3, ror r4	; <UNPREDICTABLE>
    2b80:	00203a29 	eoreq	r3, r0, r9, lsr #20
    2b84:	45535953 	ldrbmi	r5, [r3, #-2387]	; 0xfffff6ad
    2b88:	203a5252 	eorscs	r5, sl, r2, asr r2
    2b8c:	202c7825 	eorcs	r7, ip, r5, lsr #16
    2b90:	75007325 	strvc	r7, [r0, #-805]	; 0xfffffcdb
    2b94:	75007261 	strvc	r7, [r0, #-609]	; 0xfffffd9f
    2b98:	50006961 	andpl	r6, r0, r1, ror #18
    2b9c:	534f6369 	movtpl	r6, #62313	; 0xf369
    2ba0:	2e357620 	cfmsuba32cs	mvax1, mvax7, mvfx5, mvfx0
    2ba4:	47502f34 	smmlarmi	r0, r4, pc, r2	; <UNPREDICTABLE>
    2ba8:	32303831 	eorscc	r3, r0, #3211264	; 0x310000
    2bac:	2d413232 	sfmcs	f3, 2, [r1, #-200]	; 0xffffff38
    2bb0:	33314343 	teqcc	r1, #201326593	; 0xc000001
    2bb4:	4c5f3035 	mrrcmi	0, 3, r3, pc, cr5	; <UNPREDICTABLE>
    2bb8:	434e5541 	movtmi	r5, #58689	; 0xe541
    2bbc:	2c4c5848 	mcrrcs	8, 4, r5, ip, cr8
    2bc0:	29432820 	stmdbcs	r3, {r5, fp, sp}^
    2bc4:	736c4f20 	cmnvc	ip, #32, 30	; 0x80
    2bc8:	74656e6f 	strbtvc	r6, [r5], #-3695	; 0xfffff191
    2bcc:	6d6f4320 	stclvs	3, cr4, [pc, #-128]!	; 2b54 <NOROM_OSCClockSourceGet+0x12c>
    2bd0:	696e756d 	stmdbvs	lr!, {r0, r2, r3, r5, r6, r8, sl, ip, sp, lr}^
    2bd4:	69746163 	ldmdbvs	r4!, {r0, r1, r5, r6, r8, sp, lr}^
    2bd8:	2c736e6f 	ldclcs	14, cr6, [r3], #-444	; 0xfffffe44
    2bdc:	30303220 	eorscc	r3, r0, r0, lsr #4
    2be0:	30322d32 	eorscc	r2, r2, r2, lsr sp
    2be4:	4c003831 	stcmi	8, cr3, [r0], {49}	; 0x31
    2be8:	6f746665 	svcvs	0x00746665
    2bec:	20726576 	rsbscs	r6, r2, r6, ror r5
    2bf0:	3a4d4152 	bcc	1353140 <__ccfg+0x1333198>
    2bf4:	20642520 	rsbcs	r2, r4, r0, lsr #10
    2bf8:	65747962 	ldrbvs	r7, [r4, #-2402]!	; 0xfffff69e
    2bfc:	74730073 	ldrbtvc	r0, [r3], #-115	; 0xffffff8d
    2c00:	00000000 	andeq	r0, r0, r0

00002c04 <port_confs>:
    2c04:	00306080 	eorseq	r6, r0, r0, lsl #1
    2c08:	00386080 	eorseq	r6, r8, r0, lsl #1
    2c0c:	00186010 	andseq	r6, r8, r0, lsl r0
    2c10:	2010400f 	andscs	r4, r0, pc
    2c14:	30694000 	rsbcc	r4, r9, r0
    2c18:	30714000 	rsbscc	r4, r1, r0
    2c1c:	00b86008 	adcseq	r6, r8, r8
    2c20:	60c94000 	sbcvs	r4, r9, r0
    2c24:	60d14000 	sbcsvs	r4, r1, r0
    2c28:	60d94000 	sbcsvs	r4, r9, r0
    2c2c:	60e14000 	rscvs	r4, r1, r0
    2c30:	00096380 	andeq	r6, r9, r0, lsl #7
    2c34:	00f16b80 	rscseq	r6, r1, r0, lsl #23
    2c38:	20402000 	subcs	r2, r0, r0
    2c3c:	00486080 	subeq	r6, r8, r0, lsl #1
    2c40:	00506080 	subseq	r6, r0, r0, lsl #1
    2c44:	00a06000 	adceq	r6, r0, r0
    2c48:	74617473 	strbtvc	r7, [r1], #-1139	; 0xfffffb8d
    2c4c:	77730065 	ldrbvc	r0, [r3, -r5, rrx]!
    2c50:	64646100 	strbtvs	r6, [r4], #-256	; 0xffffff00
    2c54:	6f690076 	svcvs	0x00690076
    2c58:	6c616d00 	stclvs	13, cr6, [r1], #-0
    2c5c:	616d0031 	cmnvs	sp, r1, lsr r0
    2c60:	6b00676c 	blvs	1ca18 <__exidx_end+0x19d94>
    2c64:	6d006970 	vstrvs.16	s12, [r0, #-224]	; 0xffffff20	; <UNPREDICTABLE>
    2c68:	00636c61 	rsbeq	r6, r3, r1, ror #24

00002c6c <__pi_hex_enc_table>:
    2c6c:	33323130 	teqcc	r2, #48, 2
    2c70:	37363534 			; <UNDEFINED> instruction: 0x37363534
    2c74:	42413938 	submi	r3, r1, #56, 18	; 0xe0000
    2c78:	46454443 	strbmi	r4, [r5], -r3, asr #8

00002c7c <__input_pins>:
    2c7c:	9c9b9a99 	vldmials	fp, {s18-s170}

00002c80 <__button_list>:
    2c80:	0e000d00 	cdpeq	13, 0, cr0, cr0, cr0, {0}

Disassembly of section .ccfg:

0001ffa8 <__ccfg>:
   1ffa8:	01800000 	orreq	r0, r0, r0
   1ffac:	ff880010 			; <UNDEFINED> instruction: 0xff880010
   1ffb0:	0058fffd 	ldrsheq	pc, [r8], #-253	; 0xffffff03	; <UNPREDICTABLE>
   1ffb4:	f3bfff3a 	vcvt.u32.f32	d15, d26, #1
   1ffb8:	ffffffff 			; <UNDEFINED> instruction: 0xffffffff
   1ffbc:	ffffffff 			; <UNDEFINED> instruction: 0xffffffff
   1ffc0:	ffffffff 			; <UNDEFINED> instruction: 0xffffffff
   1ffc4:	ffffffff 			; <UNDEFINED> instruction: 0xffffffff
   1ffc8:	ffffffff 			; <UNDEFINED> instruction: 0xffffffff
   1ffcc:	ffffffff 			; <UNDEFINED> instruction: 0xffffffff
   1ffd0:	ffffffff 			; <UNDEFINED> instruction: 0xffffffff
   1ffd4:	ffffffff 			; <UNDEFINED> instruction: 0xffffffff
   1ffd8:	00ffffff 	ldrshteq	pc, [pc], #255	; <UNPREDICTABLE>
   1ffdc:	ffffffff 			; <UNDEFINED> instruction: 0xffffffff
   1ffe0:	ffffff00 			; <UNDEFINED> instruction: 0xffffff00
   1ffe4:	ffc500c5 			; <UNDEFINED> instruction: 0xffc500c5
   1ffe8:	ff000000 			; <UNDEFINED> instruction: 0xff000000
   1ffec:	00000000 	andeq	r0, r0, r0
   1fff0:	ffffffff 			; <UNDEFINED> instruction: 0xffffffff
   1fff4:	ffffffff 			; <UNDEFINED> instruction: 0xffffffff
   1fff8:	ffffffff 			; <UNDEFINED> instruction: 0xffffffff
   1fffc:	ffffffff 			; <UNDEFINED> instruction: 0xffffffff
